
de2_115_gcd.elf:     file format elf32-littlenios2
de2_115_gcd.elf
architecture: nios2:r1, flags 0x00000112:
EXEC_P, HAS_SYMS, D_PAGED
start address 0x00000248

Program Header:
    LOAD off    0x00001000 vaddr 0x00000000 paddr 0x00000000 align 2**12
         filesz 0x00000020 memsz 0x00000020 flags r-x
    LOAD off    0x00001020 vaddr 0x00000020 paddr 0x00000020 align 2**12
         filesz 0x0001cd3c memsz 0x0001cd3c flags r-x
    LOAD off    0x0001dd5c vaddr 0x0001cd5c paddr 0x0001eb84 align 2**12
         filesz 0x00001e28 memsz 0x00001e28 flags rw-
    LOAD off    0x000209ac vaddr 0x000209ac paddr 0x000209ac align 2**12
         filesz 0x00000000 memsz 0x0000017c flags rw-

Sections:
Idx Name          Size      VMA       LMA       File off  Algn
  0 .entry        00000020  00000000  00000000  00001000  2**5
                  CONTENTS, ALLOC, LOAD, READONLY, CODE
  1 .exceptions   00000228  00000020  00000020  00001020  2**2
                  CONTENTS, ALLOC, LOAD, READONLY, CODE
  2 .text         0001c030  00000248  00000248  00001248  2**2
                  CONTENTS, ALLOC, LOAD, READONLY, CODE
  3 .rodata       00000ae4  0001c278  0001c278  0001d278  2**2
                  CONTENTS, ALLOC, LOAD, READONLY, DATA
  4 .rwdata       00001e28  0001cd5c  0001eb84  0001dd5c  2**2
                  CONTENTS, ALLOC, LOAD, DATA, SMALL_DATA
  5 .bss          0000017c  000209ac  000209ac  000209ac  2**2
                  ALLOC, SMALL_DATA
  6 .SDRAM        00000000  00020b28  00020b28  0001fb84  2**0
                  CONTENTS
  7 .VGA_Subsystem_Char_Buf_Subsystem_Onchip_SRAM 00000000  09000000  09000000  0001fb84  2**0
                  CONTENTS
  8 .comment      00000023  00000000  00000000  0001fb84  2**0
                  CONTENTS, READONLY
  9 .debug_aranges 00001768  00000000  00000000  0001fba8  2**3
                  CONTENTS, READONLY, DEBUGGING
 10 .debug_info   0003cbbe  00000000  00000000  00021310  2**0
                  CONTENTS, READONLY, DEBUGGING
 11 .debug_abbrev 0000f7fb  00000000  00000000  0005dece  2**0
                  CONTENTS, READONLY, DEBUGGING
 12 .debug_line   00014808  00000000  00000000  0006d6c9  2**0
                  CONTENTS, READONLY, DEBUGGING
 13 .debug_frame  00003c88  00000000  00000000  00081ed4  2**2
                  CONTENTS, READONLY, DEBUGGING
 14 .debug_str    00007ea6  00000000  00000000  00085b5c  2**0
                  CONTENTS, READONLY, DEBUGGING
 15 .debug_loc    000289e2  00000000  00000000  0008da02  2**0
                  CONTENTS, READONLY, DEBUGGING
 16 .debug_alt_sim_info 00000020  00000000  00000000  000b63e4  2**2
                  CONTENTS, READONLY, DEBUGGING
 17 .debug_ranges 00002768  00000000  00000000  000b6408  2**3
                  CONTENTS, READONLY, DEBUGGING
 18 .thread_model 00000003  00000000  00000000  000bea75  2**0
                  CONTENTS, READONLY
 19 .cpu          00000005  00000000  00000000  000bea78  2**0
                  CONTENTS, READONLY
 20 .qsys         00000001  00000000  00000000  000bea7d  2**0
                  CONTENTS, READONLY
 21 .simulation_enabled 00000001  00000000  00000000  000bea7e  2**0
                  CONTENTS, READONLY
 22 .sysid_hash   00000004  00000000  00000000  000bea7f  2**0
                  CONTENTS, READONLY
 23 .sysid_base   00000004  00000000  00000000  000bea83  2**0
                  CONTENTS, READONLY
 24 .sysid_time   00000004  00000000  00000000  000bea87  2**0
                  CONTENTS, READONLY
 25 .stderr_dev   00000009  00000000  00000000  000bea8b  2**0
                  CONTENTS, READONLY
 26 .stdin_dev    00000009  00000000  00000000  000bea94  2**0
                  CONTENTS, READONLY
 27 .stdout_dev   00000009  00000000  00000000  000bea9d  2**0
                  CONTENTS, READONLY
 28 .sopc_system_name 0000000f  00000000  00000000  000beaa6  2**0
                  CONTENTS, READONLY
 29 .jdi          0000eb16  00000000  00000000  000beab5  2**0
                  CONTENTS, READONLY
 30 .sopcinfo     001d50c0  00000000  00000000  000cd5cb  2**0
                  CONTENTS, READONLY
SYMBOL TABLE:
00000000 l    d  .entry	00000000 .entry
00000020 l    d  .exceptions	00000000 .exceptions
00000248 l    d  .text	00000000 .text
0001c278 l    d  .rodata	00000000 .rodata
0001cd5c l    d  .rwdata	00000000 .rwdata
000209ac l    d  .bss	00000000 .bss
00020b28 l    d  .SDRAM	00000000 .SDRAM
09000000 l    d  .VGA_Subsystem_Char_Buf_Subsystem_Onchip_SRAM	00000000 .VGA_Subsystem_Char_Buf_Subsystem_Onchip_SRAM
00000000 l    d  .comment	00000000 .comment
00000000 l    d  .debug_aranges	00000000 .debug_aranges
00000000 l    d  .debug_info	00000000 .debug_info
00000000 l    d  .debug_abbrev	00000000 .debug_abbrev
00000000 l    d  .debug_line	00000000 .debug_line
00000000 l    d  .debug_frame	00000000 .debug_frame
00000000 l    d  .debug_str	00000000 .debug_str
00000000 l    d  .debug_loc	00000000 .debug_loc
00000000 l    d  .debug_alt_sim_info	00000000 .debug_alt_sim_info
00000000 l    d  .debug_ranges	00000000 .debug_ranges
00000000 l    df *ABS*	00000000 ../de2_115_bsp//obj/HAL/src/crt0.o
00000280 l       .text	00000000 alt_after_alt_main
00000000 l    df *ABS*	00000000 alt_irq_handler.c
00000000 l    df *ABS*	00000000 alt_instruction_exception_entry.c
00000000 l    df *ABS*	00000000 main.cpp
00000000 l    df *ABS*	00000000 eh_personality.cc
00000430 l     F .text	000000a4 _ZL21size_of_encoded_valueh
000004d4 l     F .text	0000020c _ZL28read_encoded_value_with_basehjPKhPj
000006e0 l     F .text	00000054 _ZL15get_ttype_entryP16lsda_header_infom
00000734 l     F .text	0000008c _ZL21base_of_encoded_valuehP15_Unwind_Context
000007c0 l     F .text	00000134 _ZL17parse_lsda_headerP15_Unwind_ContextPKhP16lsda_header_info
000008f4 l     F .text	00000088 _ZL16get_adjusted_ptrPKSt9type_infoS1_PPv.constprop.3
0000097c l     F .text	000001c0 _ZL28check_compact_exception_specPKSt9type_infoPvPKhij
00000b3c l     F .text	000000a8 _ZL20check_exception_specP16lsda_header_infoPKSt9type_infoPvl
00000000 l    df *ABS*	00000000 eh_throw.cc
00001414 l     F .text	00000044 _ZL23__gxx_exception_cleanup19_Unwind_Reason_CodeP17_Unwind_Exception
00000000 l    df *ABS*	00000000 eh_catch.cc
00000000 l    df *ABS*	00000000 eh_terminate.cc
00000000 l    df *ABS*	00000000 eh_unex_handler.cc
00000000 l    df *ABS*	00000000 eh_alloc.cc
00001844 l     F .text	000000b8 _ZN12_GLOBAL__N_14pool4freeEPv.constprop.4
000209f0 l     O .bss	00000010 _ZN12_GLOBAL__N_114emergency_poolE
000018fc l     F .text	000000a8 _ZN12_GLOBAL__N_14pool8allocateEj.constprop.5
00001aac l     F .text	0000005c _GLOBAL__sub_I___cxa_allocate_exception
00000000 l    df *ABS*	00000000 eh_call.cc
00000000 l    df *ABS*	00000000 eh_globals.cc
000209ac l     O .bss	00000008 _ZL10eh_globals
00000000 l    df *ABS*	00000000 eh_exception.cc
00000000 l    df *ABS*	00000000 eh_term_handler.cc
00000000 l    df *ABS*	00000000 del_op.cc
00000000 l    df *ABS*	00000000 pure.cc
00000000 l    df *ABS*	00000000 class_type_info.cc
00000000 l    df *ABS*	00000000 si_class_type_info.cc
00000000 l    df *ABS*	00000000 tinfo.cc
00000000 l    df *ABS*	00000000 unwind-sjlj.c
000021dc l     F .text	00000118 _Unwind_ForcedUnwind_Phase2
000209b4 l     O .bss	00000004 fc_static
000022f4 l     F .text	000000c0 _Unwind_RaiseException_Phase2
000023b4 l     F .text	00000030 uw_install_context.isra.1
00000000 l    df *ABS*	00000000 abort.c
00000000 l    df *ABS*	00000000 malloc.c
00000000 l    df *ABS*	00000000 mallocr.c
00000000 l    df *ABS*	00000000 memset.c
00000000 l    df *ABS*	00000000 printf.c
00000000 l    df *ABS*	00000000 sbrkr.c
00000000 l    df *ABS*	00000000 scanf.c
00000000 l    df *ABS*	00000000 signal.c
00000000 l    df *ABS*	00000000 signalr.c
00000000 l    df *ABS*	00000000 strcmp.c
00000000 l    df *ABS*	00000000 vfprintf.c
0001c512 l     O .rodata	00000010 zeroes.4404
00005790 l     F .text	000000bc __sbprintf
0001c522 l     O .rodata	00000010 blanks.4403
00000000 l    df *ABS*	00000000 vfscanf.c
0001c53a l     O .rodata	00000022 basefix.4359
00000000 l    df *ABS*	00000000 wsetup.c
00000000 l    df *ABS*	00000000 ctype_.c
0001c65d l     O .rodata	00000180 _ctype_b
00000000 l    df *ABS*	00000000 dtoa.c
0000722c l     F .text	00000200 quorem
00000000 l    df *ABS*	00000000 fflush.c
00000000 l    df *ABS*	00000000 findfp.c
00008d5c l     F .text	00000008 __fp_unlock
00008d70 l     F .text	0000019c __sinit.part.1
00008f0c l     F .text	00000008 __fp_lock
00000000 l    df *ABS*	00000000 fread.c
00000000 l    df *ABS*	00000000 mallocr.c
00000000 l    df *ABS*	00000000 fwalk.c
00000000 l    df *ABS*	00000000 impure.c
0001d164 l     O .rwdata	00000424 impure_data
00000000 l    df *ABS*	00000000 int_errno.c
00000000 l    df *ABS*	00000000 iswspace.c
00000000 l    df *ABS*	00000000 locale.c
0001d5a8 l     O .rwdata	00000020 lc_ctype_charset
0001d588 l     O .rwdata	00000020 lc_message_charset
0001d5c8 l     O .rwdata	00000038 lconv
00000000 l    df *ABS*	00000000 makebuf.c
00000000 l    df *ABS*	00000000 mbrtowc.c
00000000 l    df *ABS*	00000000 mbtowc_r.c
00000000 l    df *ABS*	00000000 memchr.c
00000000 l    df *ABS*	00000000 memcpy.c
00000000 l    df *ABS*	00000000 mprec.c
0001c800 l     O .rodata	0000000c p05.2768
00000000 l    df *ABS*	00000000 refill.c
0000b02c l     F .text	0000001c lflush
00000000 l    df *ABS*	00000000 s_fpclassify.c
00000000 l    df *ABS*	00000000 sccl.c
00000000 l    df *ABS*	00000000 sf_nan.c
00000000 l    df *ABS*	00000000 sprintf.c
00000000 l    df *ABS*	00000000 stdio.c
00000000 l    df *ABS*	00000000 strlen.c
00000000 l    df *ABS*	00000000 strtod.c
0000b600 l     F .text	00000064 sulp
0001c948 l     O .rodata	00000014 fpi.2737
0001c95c l     O .rodata	00000028 tinytens
0001c934 l     O .rodata	00000014 fpinan.2773
00000000 l    df *ABS*	00000000 strtol.c
00000000 l    df *ABS*	00000000 strtoll_r.c
00000000 l    df *ABS*	00000000 strtoul.c
00000000 l    df *ABS*	00000000 strtoull_r.c
00000000 l    df *ABS*	00000000 vfprintf.c
0001c984 l     O .rodata	00000010 zeroes.4389
0001c994 l     O .rodata	00000010 blanks.4388
00000000 l    df *ABS*	00000000 ungetc.c
00000000 l    df *ABS*	00000000 vfprintf.c
0000fc40 l     F .text	000000fc __sprint_r.part.0
0001c9b4 l     O .rodata	00000010 blanks.4348
0001c9a4 l     O .rodata	00000010 zeroes.4349
000111cc l     F .text	000000bc __sbprintf
00000000 l    df *ABS*	00000000 writer.c
00000000 l    df *ABS*	00000000 closer.c
00000000 l    df *ABS*	00000000 mallocr.c
00000000 l    df *ABS*	00000000 fclose.c
00000000 l    df *ABS*	00000000 fputwc.c
00000000 l    df *ABS*	00000000 fstatr.c
00000000 l    df *ABS*	00000000 fvwrite.c
00000000 l    df *ABS*	00000000 gdtoa-gethex.c
00011c24 l     F .text	00000100 rshift
00000000 l    df *ABS*	00000000 gdtoa-hexnan.c
00000000 l    df *ABS*	00000000 isattyr.c
00000000 l    df *ABS*	00000000 lseekr.c
00000000 l    df *ABS*	00000000 memmove.c
00000000 l    df *ABS*	00000000 readr.c
00000000 l    df *ABS*	00000000 mallocr.c
00000000 l    df *ABS*	00000000 strncmp.c
00000000 l    df *ABS*	00000000 vfprintf.c
0001cad4 l     O .rodata	00000010 blanks.4332
0001cac4 l     O .rodata	00000010 zeroes.4333
00000000 l    df *ABS*	00000000 wbuf.c
00000000 l    df *ABS*	00000000 wcrtomb.c
00000000 l    df *ABS*	00000000 wctomb_r.c
00000000 l    df *ABS*	00000000 libgcc2.c
00000000 l    df *ABS*	00000000 libgcc2.c
00000000 l    df *ABS*	00000000 libgcc2.c
00000000 l    df *ABS*	00000000 lib2-divmod.c
00000000 l    df *ABS*	00000000 eqsf2.c
00000000 l    df *ABS*	00000000 gesf2.c
00000000 l    df *ABS*	00000000 lesf2.c
00000000 l    df *ABS*	00000000 adddf3.c
00000000 l    df *ABS*	00000000 divdf3.c
00000000 l    df *ABS*	00000000 eqdf2.c
00000000 l    df *ABS*	00000000 gedf2.c
00000000 l    df *ABS*	00000000 ledf2.c
00000000 l    df *ABS*	00000000 muldf3.c
00000000 l    df *ABS*	00000000 subdf3.c
00000000 l    df *ABS*	00000000 fixdfsi.c
00000000 l    df *ABS*	00000000 floatsidf.c
00000000 l    df *ABS*	00000000 floatunsidf.c
00000000 l    df *ABS*	00000000 truncdfsf2.c
00000000 l    df *ABS*	00000000 libgcc2.c
00000000 l    df *ABS*	00000000 libgcc2.c
00000000 l    df *ABS*	00000000 alt_close.c
00017e84 l     F .text	0000003c alt_get_errno
00000000 l    df *ABS*	00000000 alt_dev.c
00017f90 l     F .text	0000002c alt_dev_null_write
00000000 l    df *ABS*	00000000 alt_errno.c
00000000 l    df *ABS*	00000000 alt_exit.c
00000000 l    df *ABS*	00000000 alt_fstat.c
00017ff0 l     F .text	0000003c alt_get_errno
00000000 l    df *ABS*	00000000 alt_getpid.c
00000000 l    df *ABS*	00000000 alt_isatty.c
000180fc l     F .text	0000003c alt_get_errno
00000000 l    df *ABS*	00000000 alt_kill.c
000181dc l     F .text	0000003c alt_get_errno
00000000 l    df *ABS*	00000000 alt_load.c
00018348 l     F .text	00000068 alt_load_section
00000000 l    df *ABS*	00000000 alt_lseek.c
00018434 l     F .text	0000003c alt_get_errno
00000000 l    df *ABS*	00000000 alt_main.c
00000000 l    df *ABS*	00000000 alt_malloc_lock.c
00000000 l    df *ABS*	00000000 alt_read.c
00018608 l     F .text	0000003c alt_get_errno
00000000 l    df *ABS*	00000000 alt_release_fd.c
00000000 l    df *ABS*	00000000 alt_sbrk.c
0001eb74 l     O .rwdata	00000004 heap_end
00000000 l    df *ABS*	00000000 alt_write.c
00018854 l     F .text	0000003c alt_get_errno
00000000 l    df *ABS*	00000000 alt_sys_init.c
00018988 l     F .text	00000034 alt_dev_reg
0001d7a8 l     O .rwdata	00001060 JTAG_UART
0001e808 l     O .rwdata	00000030 AV_Config
0001e838 l     O .rwdata	00000030 Audio_Subsystem_Audio
0001e868 l     O .rwdata	0000002c Char_LCD_16x2
0001e894 l     O .rwdata	0000002c IrDA
0001e8c0 l     O .rwdata	00000038 PS2_Port
0001e8f8 l     O .rwdata	00000038 PS2_Port_Dual
0001e930 l     O .rwdata	0000002c Serial_Port
0001e95c l     O .rwdata	00000034 USB
0001e990 l     O .rwdata	0000005c VGA_Subsystem_Char_Buf_Subsystem_Char_Buf_DMA
0001e9ec l     O .rwdata	0000005c VGA_Subsystem_VGA_Pixel_DMA
0001ea48 l     O .rwdata	0000005c Video_In_Subsystem_Video_In_DMA
0001eaa4 l     O .rwdata	00000044 VGA_Subsystem_VGA_Pixel_RGB_Resampler
0001eae8 l     O .rwdata	0000002c SD_Card
00000000 l    df *ABS*	00000000 altera_avalon_jtag_uart_fd.c
00000000 l    df *ABS*	00000000 altera_avalon_jtag_uart_init.c
00019578 l     F .text	00000210 altera_avalon_jtag_uart_irq
00019788 l     F .text	000000a0 altera_avalon_jtag_uart_timeout
00000000 l    df *ABS*	00000000 altera_avalon_jtag_uart_ioctl.c
00000000 l    df *ABS*	00000000 altera_avalon_jtag_uart_read.c
00000000 l    df *ABS*	00000000 altera_avalon_jtag_uart_write.c
00000000 l    df *ABS*	00000000 altera_avalon_timer_sc.c
00019dc0 l     F .text	0000007c alt_avalon_timer_sc_irq
00000000 l    df *ABS*	00000000 altera_up_avalon_character_lcd.c
00000000 l    df *ABS*	00000000 altera_up_avalon_irda.c
00000000 l    df *ABS*	00000000 altera_up_avalon_ps2.c
00000000 l    df *ABS*	00000000 altera_up_avalon_rs232.c
00000000 l    df *ABS*	00000000 alt_alarm_start.c
00000000 l    df *ABS*	00000000 alt_dcache_flush_all.c
00000000 l    df *ABS*	00000000 alt_dev_llist_insert.c
0001b2bc l     F .text	0000003c alt_get_errno
00000000 l    df *ABS*	00000000 alt_do_ctors.c
00000000 l    df *ABS*	00000000 alt_do_dtors.c
00000000 l    df *ABS*	00000000 alt_find_dev.c
00000000 l    df *ABS*	00000000 alt_icache_flush_all.c
00000000 l    df *ABS*	00000000 alt_io_redirect.c
0001b520 l     F .text	000000c4 alt_open_fd
00000000 l    df *ABS*	00000000 alt_irq_register.c
00000000 l    df *ABS*	00000000 alt_irq_vars.c
00000000 l    df *ABS*	00000000 alt_open.c
0001b7e0 l     F .text	0000003c alt_get_errno
0001b81c l     F .text	000000c4 alt_file_locked
00000000 l    df *ABS*	00000000 alt_tick.c
00000000 l    df *ABS*	00000000 altera_nios2_gen2_irq.c
00000000 l    df *ABS*	00000000 alt_find_file.c
00000000 l    df *ABS*	00000000 alt_get_fd.c
00000000 l    df *ABS*	00000000 alt_icache_flush.c
00000000 l    df *ABS*	00000000 atexit.c
00000000 l    df *ABS*	00000000 exit.c
00000000 l    df *ABS*	00000000 memcmp.c
00000000 l    df *ABS*	00000000 __atexit.c
00000000 l    df *ABS*	00000000 __call_atexit.c
000209ec g     O .bss	00000004 alt_instruction_exception_handler
00001a04 g     F .text	00000028 __cxa_free_exception
00002184 g     F .text	00000008 _ZNKSt9type_info15__is_function_pEv
0000aeb4 g     F .text	00000074 _mprec_log10
000017e4 g     F .text	00000018 _ZSt10unexpectedv
0000afa0 g     F .text	0000008c __any_on
000127b0 g     F .text	00000054 _isatty_r
0001c80c g     O .rodata	00000028 __mprec_tinytens
00018544 g     F .text	0000007c alt_main
00020a28 g     O .bss	00000100 alt_irq
0001a97c g     F .text	00000060 alt_up_ps2_disable_read_interrupt
00001ba0 g     F .text	00000004 _ZN10__cxxabiv115__forced_unwindD1Ev
00012804 g     F .text	00000060 _lseek_r
00002470 g     F .text	00000020 .hidden _Unwind_GetIPInfo
0001eb84 g       *ABS*	00000000 __flash_rwdata_start
00019f24 g     F .text	00000040 alt_up_character_lcd_send_cmd
00016808 g     F .text	00000088 .hidden __eqdf2
000014e8 g     F .text	00000084 __cxa_rethrow
000023fc g     F .text	00000014 .hidden _Unwind_SjLj_Unregister
00001820 g     F .text	00000014 _ZSt14set_unexpectedPFvvE
00002460 g     F .text	00000010 .hidden _Unwind_GetIP
00020b28 g       *ABS*	00000000 __alt_heap_start
00003440 g     F .text	0000005c _kill_r
000030a0 g     F .text	0000003c printf
000145b8 g     F .text	0000009c _wcrtomb_r
00003208 g     F .text	00000084 _signal_r
0000b504 g     F .text	0000005c __sseek
000090ac g     F .text	00000010 __sinit
00014460 g     F .text	00000140 __swbuf_r
0001a794 g     F .text	00000034 read_CE_bit
00001a80 g     F .text	0000002c __cxa_free_dependent_exception
00001ebc g     F .text	00000010 _ZN10__cxxabiv120__si_class_type_infoD2Ev
00009948 g     F .text	0000007c _setlocale_r
0001c440  w    O .rodata	00000025 _ZTSN10__cxxabiv120__si_class_type_infoE
00008f14 g     F .text	00000068 __sfmoreglue
0000fc28 g     F .text	00000018 ungetc
000185e4 g     F .text	00000024 __malloc_unlock
0001ab1c g     F .text	0000009c alt_up_ps2_read_data_byte_timeout
0001b010 g     F .text	00000090 alt_up_rs232_read_fd
00001ba0 g     F .text	00000004 _ZN10__cxxabiv115__forced_unwindD2Ev
0000b664 g     F .text	000015f8 _strtod_r
000016dc g     F .text	00000020 _ZSt18uncaught_exceptionv
00001bd4 g     F .text	00000020 __cxa_deleted_virtual
00012864 g     F .text	0000015c memmove
00001b78 g     F .text	00000004 _ZNSt9exceptionD2Ev
00009094 g     F .text	00000018 _cleanup
0000a030 g     F .text	000000a8 _Balloc
00016890 g     F .text	000000dc .hidden __gtdf2
0001c36c  w    O .rodata	00000014 _ZTVSt13bad_exception
0001bbd8 g     F .text	00000024 altera_nios2_gen2_irq_init
00019eb0 g     F .text	00000074 get_DDRAM_addr
00000000 g     F .entry	0000001c __reset
000024ac g     F .text	00000008 .hidden _Unwind_GetRegionStart
00000020 g       *ABS*	00000000 __flash_exceptions_start
0001170c g     F .text	0000005c _fstat_r
000209c4 g     O .bss	00000004 errno
00007070 g     F .text	0000001c __svfscanf
0000b480 g     F .text	00000008 __seofread
00013224 g     F .text	0000123c ___svfiprintf_internal_r
00002688 g     F .text	00000074 .hidden _Unwind_Backtrace
000209d8 g     O .bss	00000004 alt_argv
00026b14 g       *ABS*	00000000 _gp
000180dc g     F .text	00000020 getpid
000011e4 g     F .text	00000230 __cxa_call_unexpected
0000156c g     F .text	00000008 __cxa_get_exception_ptr
0001d628 g     O .rwdata	00000180 alt_fd_list
0000259c g     F .text	00000044 .hidden _Unwind_SjLj_ForcedUnwind
0000242c g     F .text	00000018 .hidden _Unwind_GetCFA
000017fc g     F .text	00000014 _ZSt13set_terminatePFvvE
0001b45c g     F .text	00000090 alt_find_dev
00009ee8 g     F .text	00000148 memcpy
00012554 g     F .text	0000025c __hexnan
0001a0cc g     F .text	00000050 alt_up_character_lcd_write_fd
00001a2c g     F .text	00000054 __cxa_allocate_dependent_exception
00008d64 g     F .text	0000000c _cleanup_r
00001c6c g     F .text	00000018 _ZNK10__cxxabiv117__class_type_info20__do_find_public_srcEiPKvPKS0_S2_
00017af4 g     F .text	000000dc .hidden __floatsidf
0001b5e4 g     F .text	0000007c alt_io_redirect
0001696c g     F .text	000000f4 .hidden __ltdf2
0001c278 g       *ABS*	00000000 __DTOR_END__
00001c84 g     F .text	00000010 _ZN10__cxxabiv117__class_type_infoD1Ev
0001a664 g     F .text	00000090 alt_up_irda_write_fd
0001af9c g     F .text	00000074 alt_up_rs232_read_data
0001be38 g     F .text	0000009c alt_exception_cause_generated_bad_addr
00009c8c g     F .text	000000d8 mbrtowc
0000b21c g     F .text	00000074 __fpclassifyd
0000708c g     F .text	0000004c _vfscanf_r
0000ae10 g     F .text	000000a4 __ratio
000111b0 g     F .text	0000001c __vfiprintf_internal
0001a460 g     F .text	00000040 alt_up_irda_get_used_space_in_read_FIFO
00019980 g     F .text	0000021c altera_avalon_jtag_uart_read
00002714 g     F .text	00000014 malloc
00003070 g     F .text	00000030 _printf_r
000153bc g     F .text	00000064 .hidden __udivsi3
00018138 g     F .text	000000a4 isatty
0000328c g     F .text	000000bc _raise_r
00009918 g     F .text	00000030 iswspace
0001c85c g     O .rodata	000000c8 __mprec_tens
000099c4 g     F .text	0000000c __locale_charset
000155ac g     F .text	000000c8 .hidden __lesf2
0001a400 g     F .text	00000060 alt_up_irda_disable_read_interrupt
000147a0 g     F .text	00000074 .hidden __fixunsdfsi
0001bda8 g     F .text	00000090 alt_icache_flush
000209c0 g     O .bss	00000004 __malloc_top_pad
0000349c g     F .text	00000004 _getpid_r
0000d4f4 g     F .text	0000001c strtoul
0001eb50 g     O .rwdata	00000004 __mb_cur_max
000099f4 g     F .text	0000000c _localeconv_r
0000d510 g     F .text	000002d8 _strtoull_r
00011768 g     F .text	000004bc __sfvwrite_r
0000a43c g     F .text	0000003c __i2b
00001e04 g     F .text	000000b8 _ZNK10__cxxabiv117__class_type_info10__do_catchEPKSt9type_infoPPvj
00003348 g     F .text	000000a8 __sigtramp_r
000030dc g     F .text	00000054 _sbrk_r
0001c4b0  w    O .rodata	00000020 _ZTVSt9type_info
000129c0 g     F .text	00000060 _read_r
00001b80 g     F .text	0000000c _ZNKSt9exception4whatEv
0001eb6c g     O .rwdata	00000004 alt_max_fd
0001af18 g     F .text	00000044 alt_up_rs232_check_parity
00011400 g     F .text	000000f0 _fclose_r
0001a7c8 g     F .text	00000030 read_num_bytes_available
00008d2c g     F .text	00000030 fflush
000209bc g     O .bss	00000004 __malloc_max_sbrked_mem
0001b660 g     F .text	00000180 alt_irq_register
0001a730 g     F .text	00000034 read_RI_bit
00015674 g     F .text	000008ac .hidden __adddf3
00015478 g     F .text	00000078 .hidden __nesf2
0001c474  w    O .rodata	0000002c _ZTVN10__cxxabiv120__si_class_type_infoE
0000abb8 g     F .text	0000010c __b2d
00014d8c g     F .text	00000538 .hidden __umoddi3
00018470 g     F .text	000000d4 lseek
00001cc8 g     F .text	0000006c _ZNK10__cxxabiv117__class_type_info11__do_upcastEPKS0_PKvRNS0_15__upcast_resultE
00001bb0 g     F .text	00000004 _ZdlPv
0001eb48 g     O .rwdata	00000004 _global_impure_ptr
00012a20 g     F .text	00000564 _realloc_r
00020b28 g       *ABS*	00000000 __bss_end
0001bad0 g     F .text	00000108 alt_tick
000023e4 g     F .text	00000018 .hidden _Unwind_SjLj_Register
0001c9c4 g     O .rodata	00000100 __hexdig
00014814 g     F .text	00000578 .hidden __udivdi3
00011668 g     F .text	00000024 _fputwc_r
0001c834 g     O .rodata	00000028 __mprec_bigtens
0000a220 g     F .text	00000104 __s2b
000026fc g     F .text	00000018 abort
00017bd0 g     F .text	000000a8 .hidden __floatunsidf
0000a8f8 g     F .text	00000060 __mcmp
0001a82c g     F .text	0000002c read_data_byte
00001628 g     F .text	000000b4 __cxa_end_catch
000090cc g     F .text	00000018 __fp_lock_all
00001b7c g     F .text	00000004 _ZNSt13bad_exceptionD2Ev
0001ba34 g     F .text	0000009c alt_alarm_stop
0000cfac g     F .text	0000001c strtol
0001a764 g     F .text	00000030 read_RE_bit
000209e0 g     O .bss	00000004 alt_irq_active
000017bc g     F .text	00000018 _ZSt9terminatev
0001a4a0 g     F .text	0000003c alt_up_irda_get_available_space_in_write_FIFO
000000fc g     F .exceptions	000000d8 alt_irq_handler
0001d600 g     O .rwdata	00000028 alt_dev_null
00001ba8 g     F .text	00000004 _ZN10__cxxabiv119__foreign_exceptionD2Ev
0001a36c g     F .text	00000038 alt_up_character_lcd_cursor_blink_on
0001c3e4  w    O .rodata	00000022 _ZTSN10__cxxabiv117__class_type_infoE
0001a9dc g     F .text	00000074 alt_up_ps2_write_data_byte
0001b29c g     F .text	00000020 alt_dcache_flush_all
0000a324 g     F .text	00000068 __hi0bits
0001eb18  w    O .rwdata	00000008 _ZTISt9exception
00017a74 g     F .text	00000080 .hidden __fixdfsi
0000cc5c g     F .text	00000018 strtod
0001eb84 g       *ABS*	00000000 __ram_rwdata_end
00002180 g     F .text	00000004 _ZNSt9type_infoD1Ev
0001eb64 g     O .rwdata	00000008 alt_dev_list
00001ba8 g     F .text	00000004 _ZN10__cxxabiv119__foreign_exceptionD1Ev
00018890 g     F .text	000000f8 write
00002194 g     F .text	00000004 _ZNSt9type_infoD0Ev
000154f0 g     F .text	000000bc .hidden __gtsf2
0001cd5c g       *ABS*	00000000 __ram_rodata_end
0001802c g     F .text	000000b0 fstat
0001b0a0 g     F .text	00000094 alt_up_rs232_write_fd
00018218 g     F .text	00000130 kill
00000000 g       *ABS*	00000000 __alt_mem_SDRAM
0001696c g     F .text	000000f4 .hidden __ledf2
0000a670 g     F .text	00000140 __pow5mult
0000fd54 g     F .text	0000145c ___vfiprintf_internal_r
000209d0 g     O .bss	00000004 __nlocale_changed
00015420 g     F .text	00000058 .hidden __umodsi3
0000218c g     F .text	00000008 _ZNKSt9type_info11__do_upcastEPKN10__cxxabiv117__class_type_infoEPPv
0000316c g     F .text	00000030 _scanf_r
00001810 g     F .text	00000010 _ZSt13get_terminatev
00020b28 g       *ABS*	00000000 end
0001ad0c g     F .text	00000098 alt_up_ps2_write_fd
0001a4dc g     F .text	00000044 alt_up_irda_check_parity
00002670 g     F .text	00000018 .hidden _Unwind_DeleteException
000194c4 g     F .text	000000b4 altera_avalon_jtag_uart_init
000001d4 g     F .exceptions	00000074 alt_instruction_exception_entry
00001d34 g     F .text	000000d0 _ZNK10__cxxabiv117__class_type_info12__do_dyncastEiNS0_10__sub_kindEPKS0_PKvS3_S5_RNS0_16__dyncast_resultE
0001c271 g       *ABS*	00000000 __CTOR_LIST__
04000000 g       *ABS*	00000000 __alt_stack_pointer
00019e3c g     F .text	00000074 alt_avalon_timer_sc_init
00017e20 g     F .text	00000064 .hidden __clzsi2
00001bf4 g     F .text	00000078 _ZNK10__cxxabiv117__class_type_info11__do_upcastEPKS0_PPv
00019b9c g     F .text	00000224 altera_avalon_jtag_uart_write
000090bc g     F .text	00000004 __sfp_lock_acquire
0001c2f4  w    O .rodata	00000012 _ZTSSt13bad_exception
00009e04 g     F .text	000000e4 memchr
00019fd8 g     F .text	0000007c alt_up_character_lcd_write
0000357c g     F .text	000021f8 ___vfprintf_internal_r
0000b368 g     F .text	00000058 _sprintf_r
00009480 g     F .text	00000310 _free_r
000099d0 g     F .text	00000010 __locale_mb_cur_max
0001c0b4 g     F .text	00000180 __call_exitprocs
000209cc g     O .bss	00000004 __mlocale_changed
0001eb3c g     O .rwdata	00000004 __malloc_sbrk_base
00000248 g     F .text	0000003c _start
000209e4 g     O .bss	00000004 _alt_tick_rate
0000cfc8 g     F .text	000002e0 _strtoll_r
0001c4a0  w    O .rodata	0000000d _ZTSSt9type_info
00001bb4 g     F .text	00000020 __cxa_pure_virtual
0000a7b0 g     F .text	00000148 __lshift
000209e8 g     O .bss	00000004 _alt_nticks
00003404 g     F .text	00000018 signal
00018644 g     F .text	000000fc read
000189f4 g     F .text	0000096c alt_sys_init
0001a21c g     F .text	0000008c alt_up_character_lcd_shift_display
00013054 g     F .text	000001d0 __ssprint_r
0001bf9c g     F .text	00000118 __register_exitproc
00012f84 g     F .text	000000d0 strncmp
00001f00 g     F .text	00000160 _ZNK10__cxxabiv120__si_class_type_info12__do_dyncastEiNS_17__class_type_info10__sub_kindEPKS1_PKvS4_S6_RNS1_16__dyncast_resultE
0001ac28 g     F .text	00000058 alt_up_ps2_clear_fifo
0001aedc g     F .text	0000003c alt_up_rs232_get_available_space_in_write_FIFO
0000a478 g     F .text	000001f8 __multiply
0001a2a8 g     F .text	0000008c alt_up_character_lcd_erase_pos
00019828 g     F .text	00000068 altera_avalon_jtag_uart_close
0001cd5c g       *ABS*	00000000 __ram_rwdata_start
000024cc g     F .text	000000d0 .hidden _Unwind_SjLj_RaiseException
0001c278 g       *ABS*	00000000 __ram_rodata_start
00020a00 g     O .bss	00000028 __malloc_current_mallinfo
000025e0 g     F .text	00000044 .hidden _Unwind_SjLj_Resume
00015478 g     F .text	00000078 .hidden __eqsf2
0000acc4 g     F .text	0000014c __d2b
0001c394  w    O .rodata	00000014 _ZTVN10__cxxabiv119__foreign_exceptionE
00002180 g     F .text	00000004 _ZNSt9type_infoD2Ev
00001bac g     F .text	00000004 _ZN10__cxxabiv119__foreign_exceptionD0Ev
000020fc g     F .text	00000084 _ZNK10__cxxabiv120__si_class_type_info11__do_upcastEPKNS_17__class_type_infoEPKvRNS1_15__upcast_resultE
00019360 g     F .text	00000060 altera_avalon_jtag_uart_read_fd
0000d2a8 g     F .text	0000024c _strtoul_r
0001bd04 g     F .text	000000a4 alt_get_fd
0001eb28  w    O .rwdata	00000008 _ZTIN10__cxxabiv119__foreign_exceptionE
000112e8 g     F .text	00000054 _close_r
0001bf20 g     F .text	0000007c memcmp
00019420 g     F .text	00000050 altera_avalon_jtag_uart_close_fd
00020b28 g       *ABS*	00000000 __alt_stack_base
00019470 g     F .text	00000054 altera_avalon_jtag_uart_ioctl_fd
00001ebc g     F .text	00000010 _ZN10__cxxabiv120__si_class_type_infoD1Ev
0001a3a4 g     F .text	0000005c alt_up_irda_enable_read_interrupt
000070d8 g     F .text	00000154 __swsetup_r
00002624 g     F .text	0000004c .hidden _Unwind_SjLj_Resume_or_Rethrow
00015f20 g     F .text	000008e8 .hidden __divdf3
00008f7c g     F .text	00000118 __sfp
0000af28 g     F .text	00000078 __copybits
00002184 g     F .text	00000008 _ZNKSt9type_info14__is_pointer_pEv
0001cd5c g     O .rwdata	00000408 __malloc_av_
000090c8 g     F .text	00000004 __sinit_lock_release
00016a60 g     F .text	00000718 .hidden __muldf3
0000b42c g     F .text	00000054 __sread
00009328 g     F .text	00000034 fread
0001c358  w    O .rodata	00000014 _ZTVSt9exception
00001ba4 g     F .text	00000004 _ZN10__cxxabiv115__forced_unwindD0Ev
0001ae3c g     F .text	00000060 alt_up_rs232_disable_read_interrupt
0001bbfc g     F .text	00000108 alt_find_file
0001b2f8 g     F .text	000000a4 alt_dev_llist_insert
000185c0 g     F .text	00000024 __malloc_lock
000187a4 g     F .text	000000b0 sbrk
0000d7e8 g     F .text	000021d8 ___svfprintf_internal_r
0001c414  w    O .rodata	0000002c _ZTVN10__cxxabiv117__class_type_infoE
00001458 g     F .text	00000090 __cxa_throw
00008cd0 g     F .text	0000005c _fflush_r
00002490 g     F .text	00000010 .hidden _Unwind_SetIP
0001133c g     F .text	000000c4 _calloc_r
000209ac g       *ABS*	00000000 __bss_start
00002f48 g     F .text	00000128 memset
00000284 g     F .text	00000148 main
000209dc g     O .bss	00000004 alt_envp
000209b8 g     O .bss	00000004 __malloc_max_total_mem
000193c0 g     F .text	00000060 altera_avalon_jtag_uart_write_fd
000145a0 g     F .text	00000018 __swbuf
00001b60 g     F .text	0000000c __cxa_get_globals_fast
000155ac g     F .text	000000c8 .hidden __ltsf2
000090fc g     F .text	0000022c _fread_r
0001a190 g     F .text	0000008c alt_up_character_lcd_shift_cursor
0000b560 g     F .text	00000008 __sclose
04000000 g       *ABS*	00000000 __alt_heap_limit
000114f0 g     F .text	00000014 fclose
0001abb8 g     F .text	00000070 alt_up_ps2_read_data_byte
0000cd74 g     F .text	00000238 _strtol_r
00017c78 g     F .text	000001a8 .hidden __truncdfsf2
0000742c g     F .text	00001688 _dtoa_r
0000273c g     F .text	0000080c _malloc_r
00014714 g     F .text	00000030 __ascii_wctomb
00001b8c g     F .text	0000000c _ZNKSt13bad_exception4whatEv
0001eb70 g     O .rwdata	00000004 alt_errno
0000f9c0 g     F .text	000000d4 __submore
0000341c g     F .text	00000010 _init_signal
0001c408  w    O .rodata	0000000c _ZTIN10__cxxabiv117__class_type_infoE
00009790 g     F .text	000000c4 _fwalk
0001a520 g     F .text	00000040 alt_up_irda_write_data
00009da8 g     F .text	0000005c _mbtowc_r
00001b7c g     F .text	00000004 _ZNSt13bad_exceptionD1Ev
0001ada4 g     F .text	0000003c alt_up_ps2_open_dev
000152c4 g     F .text	00000084 .hidden __divsi3
00019f9c g     F .text	0000003c alt_up_character_lcd_open_dev
0000935c g     F .text	00000124 _malloc_trim_r
0001a920 g     F .text	0000005c alt_up_ps2_enable_read_interrupt
0001c278 g       *ABS*	00000000 __CTOR_END__
00019f64 g     F .text	00000038 alt_up_character_lcd_init
000034a0 g     F .text	000000dc strcmp
0001c278 g       *ABS*	00000000 __flash_rodata_start
0001c380  w    O .rodata	00000014 _ZTVN10__cxxabiv115__forced_unwindE
0001c278 g       *ABS*	00000000 __DTOR_LIST__
0001b134 g     F .text	0000003c alt_up_rs232_open_dev
00016808 g     F .text	00000088 .hidden __nedf2
000189bc g     F .text	00000038 alt_irq_init
00018740 g     F .text	00000064 alt_release_fd
00001ecc g     F .text	00000034 _ZN10__cxxabiv120__si_class_type_infoD0Ev
0001a7f8 g     F .text	00000034 read_data_valid
0000b3c0 g     F .text	0000006c sprintf
0001a334 g     F .text	00000038 alt_up_character_lcd_cursor_off
0001cae4 g     O .rodata	00000100 .hidden __clz_tab
000209c8 g     O .bss	00000004 _PathLocale
0000cc74 g     F .text	00000100 strtof
0001aab8 g     F .text	00000064 alt_up_ps2_write_data_byte_with_ack
0001bed4 g     F .text	00000014 atexit
000154f0 g     F .text	000000bc .hidden __gesf2
00011288 g     F .text	00000060 _write_r
00009a00 g     F .text	00000018 setlocale
00003130 g     F .text	0000003c scanf
000024c4 g     F .text	00000008 .hidden _Unwind_GetTextRelBase
00001b08 g     F .text	00000058 __cxa_call_terminate
0000b360 g     F .text	00000008 nanf
0001eb4c g     O .rwdata	00000004 _impure_ptr
0001eb20  w    O .rwdata	00000008 _ZTIN10__cxxabiv115__forced_unwindE
000209d4 g     O .bss	00000004 alt_argc
00008ab4 g     F .text	0000021c __sflush_r
00009be0 g     F .text	000000ac _mbrtowc_r
0001b3fc g     F .text	00000060 _do_dtors
000099ec g     F .text	00000008 __locale_cjk_lang
09000000 g       *ABS*	00000000 __alt_mem_VGA_Subsystem_Char_Buf_Subsystem_Onchip_SRAM
0000b048 g     F .text	000001d4 __srefill_r
00001834 g     F .text	00000010 _ZSt14get_unexpectedv
00000020 g       .exceptions	00000000 alt_irq_entry
00009d64 g     F .text	00000044 __ascii_mbtowc
0000ab54 g     F .text	00000064 __ulp
000024b4 g     F .text	00000008 .hidden _Unwind_FindEnclosingFunction
000090e4 g     F .text	00000018 __fp_unlock_all
0001eb5c g     O .rwdata	00000008 alt_fs_list
0001c334  w    O .rodata	00000024 _ZTSN10__cxxabiv119__foreign_exceptionE
0001ade0 g     F .text	0000005c alt_up_rs232_enable_read_interrupt
000024a0 g     F .text	0000000c .hidden _Unwind_GetLanguageSpecificData
0001af5c g     F .text	00000040 alt_up_rs232_write_data
00001574 g     F .text	000000b4 __cxa_begin_catch
00001c84 g     F .text	00000010 _ZN10__cxxabiv117__class_type_infoD2Ev
000017d4 g     F .text	00000010 _ZN10__cxxabiv112__unexpectedEPFvvE
00000020 g       *ABS*	00000000 __ram_exceptions_start
00009a18 g     F .text	0000000c localeconv
00001b9c g     F .text	00000004 _ZNSt13bad_exceptionD0Ev
0001eb30 g     O .rwdata	00000004 _ZN10__cxxabiv119__terminate_handlerE
000019a4 g     F .text	00000060 __cxa_allocate_exception
0001c468  w    O .rodata	0000000c _ZTIN10__cxxabiv120__si_class_type_infoE
0001eb84 g       *ABS*	00000000 _edata
00020b28 g       *ABS*	00000000 _end
00000be4 g     F .text	00000600 __gxx_personality_sj0
00011504 g     F .text	00000164 __fputwc
00000248 g       *ABS*	00000000 __ram_exceptions_end
00007008 g     F .text	00000068 vfscanf
00019890 g     F .text	000000f0 altera_avalon_jtag_uart_ioctl
00001b78 g     F .text	00000004 _ZNSt9exceptionD1Ev
0000b488 g     F .text	0000007c __swrite
0001eb40 g     O .rwdata	00000004 __malloc_trim_threshold
000099e0 g     F .text	0000000c __locale_msgcharset
0001bee8 g     F .text	00000038 exit
00002444 g     F .text	0000001c .hidden _Unwind_SetGR
0001a560 g     F .text	00000074 alt_up_irda_read_data
00009854 g     F .text	000000c4 _fwalk_reent
00002060 g     F .text	0000009c _ZNK10__cxxabiv120__si_class_type_info20__do_find_public_srcEiPKvPKNS_17__class_type_infoES2_
0001a858 g     F .text	000000c8 alt_up_ps2_init
0000a958 g     F .text	000001fc __mdiff
000016fc g     F .text	000000c0 _ZN10__cxxabiv111__terminateEPFvvE
00015348 g     F .text	00000074 .hidden __modsi3
0001eb44 g     O .rwdata	00000004 __ctype_ptr__
04000000 g       *ABS*	00000000 __alt_data_end
00000020 g     F .exceptions	00000000 alt_exception
000090c0 g     F .text	00000004 __sfp_lock_release
0001c308  w    O .rodata	0000000c _ZTISt13bad_exception
0001a054 g     F .text	00000078 alt_up_character_lcd_string
0000b290 g     F .text	000000d0 __sccl
0001a6f4 g     F .text	0000003c alt_up_irda_open_dev
0001c55c g     O .rodata	00000101 _ctype_
0001eb54 g     O .rwdata	00000004 __mbtowc
00017fbc g     F .text	00000034 _exit
0001b170 g     F .text	0000012c alt_alarm_start
00002410 g     F .text	0000001c .hidden _Unwind_GetGR
00001b6c g     F .text	0000000c __cxa_get_globals
00009a24 g     F .text	000001bc __smakebuf_r
0001eb14 g     O .rwdata	00000004 _ZN10__cxxabiv120__unexpected_handlerE
0001aa50 g     F .text	00000068 alt_up_ps2_wait_for_ack
0000b568 g     F .text	00000098 strlen
0000319c g     F .text	0000006c _init_signal_r
0001eb34  w    O .rwdata	00000008 _ZTISt9type_info
0001b8e0 g     F .text	00000154 open
00016890 g     F .text	000000dc .hidden __gedf2
0001c2e4  w    O .rodata	0000000d _ZTSSt9exception
00011d24 g     F .text	00000830 __gethex
0001eb58 g     O .rwdata	00000004 __wctomb
00001b98 g     F .text	00000004 _ZNSt9exceptionD0Ev
0000fd3c g     F .text	00000018 __sprint_r
0001b4ec g     F .text	00000034 alt_icache_flush_all
000024bc g     F .text	00000008 .hidden _Unwind_GetDataRelBase
0001a11c g     F .text	00000074 alt_up_character_lcd_set_cursor_pos
0001eb78 g     O .rwdata	00000004 alt_priority_mask
00005774 g     F .text	0000001c __vfprintf_internal
00014744 g     F .text	0000005c _wctomb_r
0001ac80 g     F .text	0000008c alt_up_ps2_read_fd
00017178 g     F .text	000008fc .hidden __subdf3
0001a5d4 g     F .text	00000090 alt_up_irda_read_fd
0000a38c g     F .text	000000b0 __lo0bits
0000584c g     F .text	000017bc __svfscanf_r
0001eb7c g     O .rwdata	00000008 alt_alarm_list
0000fa94 g     F .text	00000194 _ungetc_r
0001b39c g     F .text	00000060 _do_ctors
0000342c g     F .text	00000014 __sigtramp
0001ae9c g     F .text	00000040 alt_up_rs232_get_used_space_in_read_FIFO
00014654 g     F .text	000000c0 wcrtomb
00017ec0 g     F .text	000000d0 close
0001c314  w    O .rodata	00000020 _ZTSN10__cxxabiv115__forced_unwindE
000183b0 g     F .text	00000084 alt_load
00002198 g     F .text	00000044 _ZNKSt9type_info10__do_catchEPKS_PPvj
000003cc g     F .text	00000064 _Z11euclids_modii
0001168c g     F .text	00000080 fputwc
000033f0 g     F .text	00000014 raise
00002728 g     F .text	00000014 free
000090c4 g     F .text	00000004 __sinit_lock_acquire
0000a100 g     F .text	00000120 __multadd
00001c94 g     F .text	00000034 _ZN10__cxxabiv117__class_type_infoD0Ev
0000a0d8 g     F .text	00000028 _Bfree



Disassembly of section .entry:

00000000 <__reset>:
   0:	00840014 	movui	r2,4096
   4:	1001483a 	initi	r2
   8:	10bff804 	addi	r2,r2,-32
   c:	00bffd16 	blt	zero,r2,4 <__alt_mem_VGA_Subsystem_Char_Buf_Subsystem_Onchip_SRAM+0xf7000004>
  10:	00400034 	movhi	at,0
  14:	08409214 	ori	at,at,584
  18:	0800683a 	jmp	at
  1c:	00000000 	call	0 <__reset>

Disassembly of section .exceptions:

00000020 <alt_exception>:
  20:	deffed04 	addi	sp,sp,-76
  24:	dfc00015 	stw	ra,0(sp)
  28:	d8400215 	stw	at,8(sp)
  2c:	d8800315 	stw	r2,12(sp)
  30:	d8c00415 	stw	r3,16(sp)
  34:	d9000515 	stw	r4,20(sp)
  38:	d9400615 	stw	r5,24(sp)
  3c:	d9800715 	stw	r6,28(sp)
  40:	d9c00815 	stw	r7,32(sp)
  44:	000b307a 	rdctl	r5,estatus
  48:	da000915 	stw	r8,36(sp)
  4c:	da400a15 	stw	r9,40(sp)
  50:	da800b15 	stw	r10,44(sp)
  54:	dac00c15 	stw	r11,48(sp)
  58:	db000d15 	stw	r12,52(sp)
  5c:	db400e15 	stw	r13,56(sp)
  60:	db800f15 	stw	r14,60(sp)
  64:	dbc01015 	stw	r15,64(sp)
  68:	d9401115 	stw	r5,68(sp)
  6c:	ebffff04 	addi	r15,ea,-4
  70:	dbc01215 	stw	r15,72(sp)
  74:	0009313a 	rdctl	r4,ipending
  78:	2880004c 	andi	r2,r5,1
  7c:	10000326 	beq	r2,zero,8c <alt_exception+0x6c>
  80:	20000226 	beq	r4,zero,8c <alt_exception+0x6c>
  84:	00000fc0 	call	fc <alt_irq_handler>
  88:	00000706 	br	a8 <alt_exception+0x88>
  8c:	df401215 	stw	ea,72(sp)
  90:	e8bfff17 	ldw	r2,-4(ea)
  94:	e93fff04 	addi	r4,ea,-4
  98:	00001d40 	call	1d4 <alt_instruction_exception_entry>
  9c:	1000021e 	bne	r2,zero,a8 <alt_exception+0x88>
  a0:	ebffff04 	addi	r15,ea,-4
  a4:	dbc01215 	stw	r15,72(sp)
  a8:	d9401117 	ldw	r5,68(sp)
  ac:	df401217 	ldw	ea,72(sp)
  b0:	dfc00017 	ldw	ra,0(sp)
  b4:	2801707a 	wrctl	estatus,r5
  b8:	d8400217 	ldw	at,8(sp)
  bc:	d8800317 	ldw	r2,12(sp)
  c0:	d8c00417 	ldw	r3,16(sp)
  c4:	d9000517 	ldw	r4,20(sp)
  c8:	d9400617 	ldw	r5,24(sp)
  cc:	d9800717 	ldw	r6,28(sp)
  d0:	d9c00817 	ldw	r7,32(sp)
  d4:	da000917 	ldw	r8,36(sp)
  d8:	da400a17 	ldw	r9,40(sp)
  dc:	da800b17 	ldw	r10,44(sp)
  e0:	dac00c17 	ldw	r11,48(sp)
  e4:	db000d17 	ldw	r12,52(sp)
  e8:	db400e17 	ldw	r13,56(sp)
  ec:	db800f17 	ldw	r14,60(sp)
  f0:	dbc01017 	ldw	r15,64(sp)
  f4:	dec01304 	addi	sp,sp,76
  f8:	ef80083a 	eret

000000fc <alt_irq_handler>:
  fc:	defff904 	addi	sp,sp,-28
 100:	dfc00615 	stw	ra,24(sp)
 104:	df000515 	stw	fp,20(sp)
 108:	df000504 	addi	fp,sp,20
 10c:	0001883a 	nop
 110:	0005313a 	rdctl	r2,ipending
 114:	e0bffe15 	stw	r2,-8(fp)
 118:	e0bffe17 	ldw	r2,-8(fp)
 11c:	e0bffb15 	stw	r2,-20(fp)
 120:	e03ffd15 	stw	zero,-12(fp)
 124:	00800044 	movi	r2,1
 128:	e0bffc15 	stw	r2,-16(fp)
 12c:	e0fffb17 	ldw	r3,-20(fp)
 130:	e0bffc17 	ldw	r2,-16(fp)
 134:	1884703a 	and	r2,r3,r2
 138:	10001526 	beq	r2,zero,190 <alt_irq_handler+0x94>
 13c:	008000b4 	movhi	r2,2
 140:	10828a04 	addi	r2,r2,2600
 144:	e0fffd17 	ldw	r3,-12(fp)
 148:	180690fa 	slli	r3,r3,3
 14c:	10c5883a 	add	r2,r2,r3
 150:	10c00017 	ldw	r3,0(r2)
 154:	008000b4 	movhi	r2,2
 158:	10828a04 	addi	r2,r2,2600
 15c:	e13ffd17 	ldw	r4,-12(fp)
 160:	200890fa 	slli	r4,r4,3
 164:	1105883a 	add	r2,r2,r4
 168:	10800104 	addi	r2,r2,4
 16c:	10800017 	ldw	r2,0(r2)
 170:	e17ffd17 	ldw	r5,-12(fp)
 174:	1009883a 	mov	r4,r2
 178:	183ee83a 	callr	r3
 17c:	0001883a 	nop
 180:	0005313a 	rdctl	r2,ipending
 184:	e0bfff15 	stw	r2,-4(fp)
 188:	e0bfff17 	ldw	r2,-4(fp)
 18c:	00000706 	br	1ac <alt_irq_handler+0xb0>
 190:	e0bffc17 	ldw	r2,-16(fp)
 194:	1085883a 	add	r2,r2,r2
 198:	e0bffc15 	stw	r2,-16(fp)
 19c:	e0bffd17 	ldw	r2,-12(fp)
 1a0:	10800044 	addi	r2,r2,1
 1a4:	e0bffd15 	stw	r2,-12(fp)
 1a8:	003fe006 	br	12c <__alt_mem_VGA_Subsystem_Char_Buf_Subsystem_Onchip_SRAM+0xf700012c>
 1ac:	e0bffb15 	stw	r2,-20(fp)
 1b0:	e0bffb17 	ldw	r2,-20(fp)
 1b4:	103fda1e 	bne	r2,zero,120 <__alt_mem_VGA_Subsystem_Char_Buf_Subsystem_Onchip_SRAM+0xf7000120>
 1b8:	0001883a 	nop
 1bc:	0001883a 	nop
 1c0:	e037883a 	mov	sp,fp
 1c4:	dfc00117 	ldw	ra,4(sp)
 1c8:	df000017 	ldw	fp,0(sp)
 1cc:	dec00204 	addi	sp,sp,8
 1d0:	f800283a 	ret

000001d4 <alt_instruction_exception_entry>:
 1d4:	defffb04 	addi	sp,sp,-20
 1d8:	dfc00415 	stw	ra,16(sp)
 1dc:	df000315 	stw	fp,12(sp)
 1e0:	df000304 	addi	fp,sp,12
 1e4:	e13fff15 	stw	r4,-4(fp)
 1e8:	000531fa 	rdctl	r2,exception
 1ec:	e0bffd15 	stw	r2,-12(fp)
 1f0:	e0bffd17 	ldw	r2,-12(fp)
 1f4:	10801f0c 	andi	r2,r2,124
 1f8:	1004d0ba 	srli	r2,r2,2
 1fc:	e0bffd15 	stw	r2,-12(fp)
 200:	0005333a 	rdctl	r2,badaddr
 204:	e0bffe15 	stw	r2,-8(fp)
 208:	d0a7b617 	ldw	r2,-24872(gp)
 20c:	10000726 	beq	r2,zero,22c <alt_instruction_exception_entry+0x58>
 210:	d0a7b617 	ldw	r2,-24872(gp)
 214:	e0fffd17 	ldw	r3,-12(fp)
 218:	e1bffe17 	ldw	r6,-8(fp)
 21c:	e17fff17 	ldw	r5,-4(fp)
 220:	1809883a 	mov	r4,r3
 224:	103ee83a 	callr	r2
 228:	00000206 	br	234 <alt_instruction_exception_entry+0x60>
 22c:	003da03a 	break	0
 230:	0005883a 	mov	r2,zero
 234:	e037883a 	mov	sp,fp
 238:	dfc00117 	ldw	ra,4(sp)
 23c:	df000017 	ldw	fp,0(sp)
 240:	dec00204 	addi	sp,sp,8
 244:	f800283a 	ret

Disassembly of section .text:

00000248 <_start>:
     248:	06c10034 	movhi	sp,1024
     24c:	dec00014 	ori	sp,sp,0
     250:	068000b4 	movhi	gp,2
     254:	d69ac514 	ori	gp,gp,27412
     258:	008000b4 	movhi	r2,2
     25c:	10826b14 	ori	r2,r2,2476
     260:	00c000b4 	movhi	r3,2
     264:	18c2ca14 	ori	r3,r3,2856
     268:	10c00326 	beq	r2,r3,278 <_start+0x30>
     26c:	10000015 	stw	zero,0(r2)
     270:	10800104 	addi	r2,r2,4
     274:	10fffd36 	bltu	r2,r3,26c <__alt_mem_VGA_Subsystem_Char_Buf_Subsystem_Onchip_SRAM+0xf700026c>
     278:	00183b00 	call	183b0 <alt_load>
     27c:	00185440 	call	18544 <alt_main>

00000280 <alt_after_alt_main>:
     280:	003fff06 	br	280 <__alt_mem_VGA_Subsystem_Char_Buf_Subsystem_Onchip_SRAM+0xf7000280>

00000284 <main>:
     284:	deffe404 	addi	sp,sp,-112
     288:	dfc01b15 	stw	ra,108(sp)
     28c:	df001a15 	stw	fp,104(sp)
     290:	ddc01915 	stw	r23,100(sp)
     294:	dd801815 	stw	r22,96(sp)
     298:	dd401715 	stw	r21,92(sp)
     29c:	dd001615 	stw	r20,88(sp)
     2a0:	dcc01515 	stw	r19,84(sp)
     2a4:	dc801415 	stw	r18,80(sp)
     2a8:	dc401315 	stw	r17,76(sp)
     2ac:	dc001215 	stw	r16,72(sp)
     2b0:	df001a04 	addi	fp,sp,104
     2b4:	00800034 	movhi	r2,0
     2b8:	1082f904 	addi	r2,r2,3044
     2bc:	e0bff115 	stw	r2,-60(fp)
     2c0:	008000b4 	movhi	r2,2
     2c4:	10b08d04 	addi	r2,r2,-15820
     2c8:	e0bff215 	stw	r2,-56(fp)
     2cc:	e0bff304 	addi	r2,fp,-52
     2d0:	e0ffe604 	addi	r3,fp,-104
     2d4:	10c00015 	stw	r3,0(r2)
     2d8:	00c00034 	movhi	r3,0
     2dc:	18c0ec04 	addi	r3,r3,944
     2e0:	10c00115 	stw	r3,4(r2)
     2e4:	16c00215 	stw	sp,8(r2)
     2e8:	e0bfeb04 	addi	r2,fp,-84
     2ec:	1009883a 	mov	r4,r2
     2f0:	00023e40 	call	23e4 <_Unwind_SjLj_Register>
     2f4:	e03fe715 	stw	zero,-100(fp)
     2f8:	e03fe915 	stw	zero,-92(fp)
     2fc:	008016c4 	movi	r2,91
     300:	e0bfe615 	stw	r2,-104(fp)
     304:	00800544 	movi	r2,21
     308:	e0bfe715 	stw	r2,-100(fp)
     30c:	e0bfe617 	ldw	r2,-104(fp)
     310:	100b883a 	mov	r5,r2
     314:	010000b4 	movhi	r4,2
     318:	00800044 	movi	r2,1
     31c:	e0bfec15 	stw	r2,-80(fp)
     320:	21309e04 	addi	r4,r4,-15752
     324:	00030a00 	call	30a0 <printf>
     328:	e0bfe717 	ldw	r2,-100(fp)
     32c:	100b883a 	mov	r5,r2
     330:	010000b4 	movhi	r4,2
     334:	2130a004 	addi	r4,r4,-15744
     338:	00030a00 	call	30a0 <printf>
     33c:	e0bfe617 	ldw	r2,-104(fp)
     340:	e0ffe717 	ldw	r3,-100(fp)
     344:	180b883a 	mov	r5,r3
     348:	1009883a 	mov	r4,r2
     34c:	00003cc0 	call	3cc <_Z11euclids_modii>
     350:	e0bfe915 	stw	r2,-92(fp)
     354:	e0bfe617 	ldw	r2,-104(fp)
     358:	e0ffe717 	ldw	r3,-100(fp)
     35c:	10c5c032 	custom	0,r2,r2,r3
     360:	e0bfe815 	stw	r2,-96(fp)
     364:	e0bfe917 	ldw	r2,-92(fp)
     368:	100b883a 	mov	r5,r2
     36c:	010000b4 	movhi	r4,2
     370:	2130a204 	addi	r4,r4,-15736
     374:	00030a00 	call	30a0 <printf>
     378:	e0bfe817 	ldw	r2,-96(fp)
     37c:	100b883a 	mov	r5,r2
     380:	010000b4 	movhi	r4,2
     384:	2130a504 	addi	r4,r4,-15724
     388:	00030a00 	call	30a0 <printf>
     38c:	010000b4 	movhi	r4,2
     390:	2130a804 	addi	r4,r4,-15712
     394:	00030a00 	call	30a0 <printf>
     398:	e0bfea04 	addi	r2,fp,-88
     39c:	100b883a 	mov	r5,r2
     3a0:	010000b4 	movhi	r4,2
     3a4:	2130af04 	addi	r4,r4,-15684
     3a8:	00031300 	call	3130 <scanf>
     3ac:	003fd306 	br	2fc <__alt_mem_VGA_Subsystem_Char_Buf_Subsystem_Onchip_SRAM+0xf70002fc>
     3b0:	e7001a04 	addi	fp,fp,104
     3b4:	e0bfed17 	ldw	r2,-76(fp)
     3b8:	1007883a 	mov	r3,r2
     3bc:	00bfffc4 	movi	r2,-1
     3c0:	e0bfec15 	stw	r2,-80(fp)
     3c4:	1809883a 	mov	r4,r3
     3c8:	00025e00 	call	25e0 <_Unwind_SjLj_Resume>

000003cc <_Z11euclids_modii>:
     3cc:	defffb04 	addi	sp,sp,-20
     3d0:	dfc00415 	stw	ra,16(sp)
     3d4:	df000315 	stw	fp,12(sp)
     3d8:	df000304 	addi	fp,sp,12
     3dc:	e13ffe15 	stw	r4,-8(fp)
     3e0:	e17fff15 	stw	r5,-4(fp)
     3e4:	e0bffe17 	ldw	r2,-8(fp)
     3e8:	e0ffff17 	ldw	r3,-4(fp)
     3ec:	10c9283a 	div	r4,r2,r3
     3f0:	e0ffff17 	ldw	r3,-4(fp)
     3f4:	20c7383a 	mul	r3,r4,r3
     3f8:	10c5c83a 	sub	r2,r2,r3
     3fc:	e0bffd15 	stw	r2,-12(fp)
     400:	e0bffd17 	ldw	r2,-12(fp)
     404:	1000021e 	bne	r2,zero,410 <_Z11euclids_modii+0x44>
     408:	e0bfff17 	ldw	r2,-4(fp)
     40c:	00000306 	br	41c <_Z11euclids_modii+0x50>
     410:	e17ffd17 	ldw	r5,-12(fp)
     414:	e13fff17 	ldw	r4,-4(fp)
     418:	00003cc0 	call	3cc <_Z11euclids_modii>
     41c:	e037883a 	mov	sp,fp
     420:	dfc00117 	ldw	ra,4(sp)
     424:	df000017 	ldw	fp,0(sp)
     428:	dec00204 	addi	sp,sp,8
     42c:	f800283a 	ret

00000430 <_ZL21size_of_encoded_valueh>:
     430:	deffff04 	addi	sp,sp,-4
     434:	dfc00015 	stw	ra,0(sp)
     438:	20c03fcc 	andi	r3,r4,255
     43c:	00803fc4 	movi	r2,255
     440:	18802026 	beq	r3,r2,4c4 <_ZL21size_of_encoded_valueh+0x94>
     444:	210001cc 	andi	r4,r4,7
     448:	00800144 	movi	r2,5
     44c:	11001c36 	bltu	r2,r4,4c0 <_ZL21size_of_encoded_valueh+0x90>
     450:	200890ba 	slli	r4,r4,2
     454:	00800034 	movhi	r2,0
     458:	10811a04 	addi	r2,r2,1128
     45c:	2089883a 	add	r4,r4,r2
     460:	20800017 	ldw	r2,0(r4)
     464:	1000683a 	jmp	r2
     468:	00000480 	call	48 <alt_exception+0x28>
     46c:	000004c0 	call	4c <alt_exception+0x2c>
     470:	00000490 	cmplti	zero,zero,18
     474:	00000480 	call	48 <alt_exception+0x28>
     478:	000004b0 	cmpltui	zero,zero,18
     47c:	000004a0 	cmpeqi	zero,zero,18
     480:	00800104 	movi	r2,4
     484:	dfc00017 	ldw	ra,0(sp)
     488:	dec00104 	addi	sp,sp,4
     48c:	f800283a 	ret
     490:	00800084 	movi	r2,2
     494:	dfc00017 	ldw	ra,0(sp)
     498:	dec00104 	addi	sp,sp,4
     49c:	f800283a 	ret
     4a0:	00800044 	movi	r2,1
     4a4:	dfc00017 	ldw	ra,0(sp)
     4a8:	dec00104 	addi	sp,sp,4
     4ac:	f800283a 	ret
     4b0:	00800204 	movi	r2,8
     4b4:	dfc00017 	ldw	ra,0(sp)
     4b8:	dec00104 	addi	sp,sp,4
     4bc:	f800283a 	ret
     4c0:	00026fc0 	call	26fc <abort>
     4c4:	0005883a 	mov	r2,zero
     4c8:	dfc00017 	ldw	ra,0(sp)
     4cc:	dec00104 	addi	sp,sp,4
     4d0:	f800283a 	ret

000004d4 <_ZL28read_encoded_value_with_basehjPKhPj>:
     4d4:	deffff04 	addi	sp,sp,-4
     4d8:	dfc00015 	stw	ra,0(sp)
     4dc:	20c03fcc 	andi	r3,r4,255
     4e0:	00801404 	movi	r2,80
     4e4:	18807326 	beq	r3,r2,6b4 <_ZL28read_encoded_value_with_basehjPKhPj+0x1e0>
     4e8:	20c003cc 	andi	r3,r4,15
     4ec:	00800304 	movi	r2,12
     4f0:	10c06f36 	bltu	r2,r3,6b0 <_ZL28read_encoded_value_with_basehjPKhPj+0x1dc>
     4f4:	180690ba 	slli	r3,r3,2
     4f8:	02000034 	movhi	r8,0
     4fc:	42014304 	addi	r8,r8,1292
     500:	1a07883a 	add	r3,r3,r8
     504:	18800017 	ldw	r2,0(r3)
     508:	1000683a 	jmp	r2
     50c:	00000540 	call	54 <alt_exception+0x34>
     510:	0000065c 	xori	zero,zero,25
     514:	00000698 	cmpnei	zero,zero,26
     518:	00000540 	call	54 <alt_exception+0x34>
     51c:	000005a4 	muli	zero,zero,22
     520:	000005f8 	rdprs	zero,zero,23
     524:	000006b0 	cmpltui	zero,zero,26
     528:	000006b0 	cmpltui	zero,zero,26
     52c:	000006b0 	cmpltui	zero,zero,26
     530:	00000604 	movi	zero,24
     534:	000005d4 	movui	zero,23
     538:	00000540 	call	54 <alt_exception+0x34>
     53c:	000005a4 	muli	zero,zero,22
     540:	30800043 	ldbu	r2,1(r6)
     544:	30c00083 	ldbu	r3,2(r6)
     548:	324000c3 	ldbu	r9,3(r6)
     54c:	32000003 	ldbu	r8,0(r6)
     550:	1004923a 	slli	r2,r2,8
     554:	1806943a 	slli	r3,r3,16
     558:	4812963a 	slli	r9,r9,24
     55c:	1204b03a 	or	r2,r2,r8
     560:	1884b03a 	or	r2,r3,r2
     564:	4886b03a 	or	r3,r9,r2
     568:	30800104 	addi	r2,r6,4
     56c:	18000926 	beq	r3,zero,594 <_ZL28read_encoded_value_with_basehjPKhPj+0xc0>
     570:	22001c0c 	andi	r8,r4,112
     574:	02400404 	movi	r9,16
     578:	42405726 	beq	r8,r9,6d8 <_ZL28read_encoded_value_with_basehjPKhPj+0x204>
     57c:	21003fcc 	andi	r4,r4,255
     580:	2100201c 	xori	r4,r4,128
     584:	213fe004 	addi	r4,r4,-128
     588:	1947883a 	add	r3,r3,r5
     58c:	2000010e 	bge	r4,zero,594 <_ZL28read_encoded_value_with_basehjPKhPj+0xc0>
     590:	18c00017 	ldw	r3,0(r3)
     594:	38c00015 	stw	r3,0(r7)
     598:	dfc00017 	ldw	ra,0(sp)
     59c:	dec00104 	addi	sp,sp,4
     5a0:	f800283a 	ret
     5a4:	30800043 	ldbu	r2,1(r6)
     5a8:	30c00083 	ldbu	r3,2(r6)
     5ac:	324000c3 	ldbu	r9,3(r6)
     5b0:	32000003 	ldbu	r8,0(r6)
     5b4:	1004923a 	slli	r2,r2,8
     5b8:	1806943a 	slli	r3,r3,16
     5bc:	4812963a 	slli	r9,r9,24
     5c0:	1204b03a 	or	r2,r2,r8
     5c4:	1884b03a 	or	r2,r3,r2
     5c8:	4886b03a 	or	r3,r9,r2
     5cc:	30800204 	addi	r2,r6,8
     5d0:	003fe606 	br	56c <__alt_mem_VGA_Subsystem_Char_Buf_Subsystem_Onchip_SRAM+0xf700056c>
     5d4:	30c00043 	ldbu	r3,1(r6)
     5d8:	32000003 	ldbu	r8,0(r6)
     5dc:	30800084 	addi	r2,r6,2
     5e0:	1806923a 	slli	r3,r3,8
     5e4:	1a06b03a 	or	r3,r3,r8
     5e8:	18ffffcc 	andi	r3,r3,65535
     5ec:	18e0001c 	xori	r3,r3,32768
     5f0:	18e00004 	addi	r3,r3,-32768
     5f4:	003fdd06 	br	56c <__alt_mem_VGA_Subsystem_Char_Buf_Subsystem_Onchip_SRAM+0xf700056c>
     5f8:	30c00003 	ldbu	r3,0(r6)
     5fc:	30800044 	addi	r2,r6,1
     600:	003fda06 	br	56c <__alt_mem_VGA_Subsystem_Char_Buf_Subsystem_Onchip_SRAM+0xf700056c>
     604:	3017883a 	mov	r11,r6
     608:	0007883a 	mov	r3,zero
     60c:	0013883a 	mov	r9,zero
     610:	5a800003 	ldbu	r10,0(r11)
     614:	58800044 	addi	r2,r11,1
     618:	1017883a 	mov	r11,r2
     61c:	52001fcc 	andi	r8,r10,127
     620:	4250983a 	sll	r8,r8,r9
     624:	53003fcc 	andi	r12,r10,255
     628:	6300201c 	xori	r12,r12,128
     62c:	633fe004 	addi	r12,r12,-128
     630:	1a06b03a 	or	r3,r3,r8
     634:	4a4001c4 	addi	r9,r9,7
     638:	603ff516 	blt	r12,zero,610 <__alt_mem_VGA_Subsystem_Char_Buf_Subsystem_Onchip_SRAM+0xf7000610>
     63c:	020007c4 	movi	r8,31
     640:	427fca36 	bltu	r8,r9,56c <__alt_mem_VGA_Subsystem_Char_Buf_Subsystem_Onchip_SRAM+0xf700056c>
     644:	5280100c 	andi	r10,r10,64
     648:	503fc826 	beq	r10,zero,56c <__alt_mem_VGA_Subsystem_Char_Buf_Subsystem_Onchip_SRAM+0xf700056c>
     64c:	023fffc4 	movi	r8,-1
     650:	4252983a 	sll	r9,r8,r9
     654:	1a46b03a 	or	r3,r3,r9
     658:	003fc506 	br	570 <__alt_mem_VGA_Subsystem_Char_Buf_Subsystem_Onchip_SRAM+0xf7000570>
     65c:	3017883a 	mov	r11,r6
     660:	0007883a 	mov	r3,zero
     664:	0015883a 	mov	r10,zero
     668:	5a000003 	ldbu	r8,0(r11)
     66c:	58800044 	addi	r2,r11,1
     670:	1017883a 	mov	r11,r2
     674:	42401fcc 	andi	r9,r8,127
     678:	4a92983a 	sll	r9,r9,r10
     67c:	42003fcc 	andi	r8,r8,255
     680:	4200201c 	xori	r8,r8,128
     684:	423fe004 	addi	r8,r8,-128
     688:	1a46b03a 	or	r3,r3,r9
     68c:	528001c4 	addi	r10,r10,7
     690:	403ff516 	blt	r8,zero,668 <__alt_mem_VGA_Subsystem_Char_Buf_Subsystem_Onchip_SRAM+0xf7000668>
     694:	003fb506 	br	56c <__alt_mem_VGA_Subsystem_Char_Buf_Subsystem_Onchip_SRAM+0xf700056c>
     698:	30c00043 	ldbu	r3,1(r6)
     69c:	32000003 	ldbu	r8,0(r6)
     6a0:	30800084 	addi	r2,r6,2
     6a4:	1806923a 	slli	r3,r3,8
     6a8:	1a06b03a 	or	r3,r3,r8
     6ac:	003faf06 	br	56c <__alt_mem_VGA_Subsystem_Char_Buf_Subsystem_Onchip_SRAM+0xf700056c>
     6b0:	00026fc0 	call	26fc <abort>
     6b4:	308000c4 	addi	r2,r6,3
     6b8:	00ffff04 	movi	r3,-4
     6bc:	10c4703a 	and	r2,r2,r3
     6c0:	10c00017 	ldw	r3,0(r2)
     6c4:	10800104 	addi	r2,r2,4
     6c8:	38c00015 	stw	r3,0(r7)
     6cc:	dfc00017 	ldw	ra,0(sp)
     6d0:	dec00104 	addi	sp,sp,4
     6d4:	f800283a 	ret
     6d8:	300b883a 	mov	r5,r6
     6dc:	003fa706 	br	57c <__alt_mem_VGA_Subsystem_Char_Buf_Subsystem_Onchip_SRAM+0xf700057c>

000006e0 <_ZL15get_ttype_entryP16lsda_header_infom>:
     6e0:	defffc04 	addi	sp,sp,-16
     6e4:	dfc00315 	stw	ra,12(sp)
     6e8:	dc400215 	stw	r17,8(sp)
     6ec:	dc000115 	stw	r16,4(sp)
     6f0:	2021883a 	mov	r16,r4
     6f4:	21000503 	ldbu	r4,20(r4)
     6f8:	2823883a 	mov	r17,r5
     6fc:	00004300 	call	430 <_ZL21size_of_encoded_valueh>
     700:	1445383a 	mul	r2,r2,r17
     704:	81800317 	ldw	r6,12(r16)
     708:	81400217 	ldw	r5,8(r16)
     70c:	81000503 	ldbu	r4,20(r16)
     710:	d80f883a 	mov	r7,sp
     714:	308dc83a 	sub	r6,r6,r2
     718:	00004d40 	call	4d4 <_ZL28read_encoded_value_with_basehjPKhPj>
     71c:	d8800017 	ldw	r2,0(sp)
     720:	dfc00317 	ldw	ra,12(sp)
     724:	dc400217 	ldw	r17,8(sp)
     728:	dc000117 	ldw	r16,4(sp)
     72c:	dec00404 	addi	sp,sp,16
     730:	f800283a 	ret

00000734 <_ZL21base_of_encoded_valuehP15_Unwind_Context>:
     734:	deffff04 	addi	sp,sp,-4
     738:	dfc00015 	stw	ra,0(sp)
     73c:	20c03fcc 	andi	r3,r4,255
     740:	00803fc4 	movi	r2,255
     744:	18800e26 	beq	r3,r2,780 <_ZL21base_of_encoded_valuehP15_Unwind_Context+0x4c>
     748:	20801c0c 	andi	r2,r4,112
     74c:	00c00804 	movi	r3,32
     750:	10c01726 	beq	r2,r3,7b0 <_ZL21base_of_encoded_valuehP15_Unwind_Context+0x7c>
     754:	18800e2e 	bgeu	r3,r2,790 <_ZL21base_of_encoded_valuehP15_Unwind_Context+0x5c>
     758:	00c01004 	movi	r3,64
     75c:	10c01026 	beq	r2,r3,7a0 <_ZL21base_of_encoded_valuehP15_Unwind_Context+0x6c>
     760:	00c01404 	movi	r3,80
     764:	10c00626 	beq	r2,r3,780 <_ZL21base_of_encoded_valuehP15_Unwind_Context+0x4c>
     768:	00c00c04 	movi	r3,48
     76c:	10c00b1e 	bne	r2,r3,79c <_ZL21base_of_encoded_valuehP15_Unwind_Context+0x68>
     770:	2809883a 	mov	r4,r5
     774:	dfc00017 	ldw	ra,0(sp)
     778:	dec00104 	addi	sp,sp,4
     77c:	00024bc1 	jmpi	24bc <_Unwind_GetDataRelBase>
     780:	0005883a 	mov	r2,zero
     784:	dfc00017 	ldw	ra,0(sp)
     788:	dec00104 	addi	sp,sp,4
     78c:	f800283a 	ret
     790:	103ffb26 	beq	r2,zero,780 <__alt_mem_VGA_Subsystem_Char_Buf_Subsystem_Onchip_SRAM+0xf7000780>
     794:	00c00404 	movi	r3,16
     798:	10fff926 	beq	r2,r3,780 <__alt_mem_VGA_Subsystem_Char_Buf_Subsystem_Onchip_SRAM+0xf7000780>
     79c:	00026fc0 	call	26fc <abort>
     7a0:	2809883a 	mov	r4,r5
     7a4:	dfc00017 	ldw	ra,0(sp)
     7a8:	dec00104 	addi	sp,sp,4
     7ac:	00024ac1 	jmpi	24ac <_Unwind_GetRegionStart>
     7b0:	2809883a 	mov	r4,r5
     7b4:	dfc00017 	ldw	ra,0(sp)
     7b8:	dec00104 	addi	sp,sp,4
     7bc:	00024c41 	jmpi	24c4 <_Unwind_GetTextRelBase>

000007c0 <_ZL17parse_lsda_headerP15_Unwind_ContextPKhP16lsda_header_info>:
     7c0:	defffb04 	addi	sp,sp,-20
     7c4:	dcc00315 	stw	r19,12(sp)
     7c8:	dc400115 	stw	r17,4(sp)
     7cc:	dc000015 	stw	r16,0(sp)
     7d0:	dfc00415 	stw	ra,16(sp)
     7d4:	dc800215 	stw	r18,8(sp)
     7d8:	2027883a 	mov	r19,r4
     7dc:	2821883a 	mov	r16,r5
     7e0:	3023883a 	mov	r17,r6
     7e4:	20003f26 	beq	r4,zero,8e4 <_ZL17parse_lsda_headerP15_Unwind_ContextPKhP16lsda_header_info+0x124>
     7e8:	00024ac0 	call	24ac <_Unwind_GetRegionStart>
     7ec:	88800015 	stw	r2,0(r17)
     7f0:	84800003 	ldbu	r18,0(r16)
     7f4:	00c03fc4 	movi	r3,255
     7f8:	84000044 	addi	r16,r16,1
     7fc:	90c03726 	beq	r18,r3,8dc <_ZL17parse_lsda_headerP15_Unwind_ContextPKhP16lsda_header_info+0x11c>
     800:	980b883a 	mov	r5,r19
     804:	9009883a 	mov	r4,r18
     808:	00007340 	call	734 <_ZL21base_of_encoded_valuehP15_Unwind_Context>
     80c:	800d883a 	mov	r6,r16
     810:	89c00104 	addi	r7,r17,4
     814:	100b883a 	mov	r5,r2
     818:	9009883a 	mov	r4,r18
     81c:	00004d40 	call	4d4 <_ZL28read_encoded_value_with_basehjPKhPj>
     820:	1021883a 	mov	r16,r2
     824:	80c00003 	ldbu	r3,0(r16)
     828:	01003fc4 	movi	r4,255
     82c:	80800044 	addi	r2,r16,1
     830:	88c00505 	stb	r3,20(r17)
     834:	18c03fcc 	andi	r3,r3,255
     838:	19002c26 	beq	r3,r4,8ec <_ZL17parse_lsda_headerP15_Unwind_ContextPKhP16lsda_header_info+0x12c>
     83c:	100f883a 	mov	r7,r2
     840:	000d883a 	mov	r6,zero
     844:	000b883a 	mov	r5,zero
     848:	38c00003 	ldbu	r3,0(r7)
     84c:	10800044 	addi	r2,r2,1
     850:	100f883a 	mov	r7,r2
     854:	19001fcc 	andi	r4,r3,127
     858:	2148983a 	sll	r4,r4,r5
     85c:	18c03fcc 	andi	r3,r3,255
     860:	18c0201c 	xori	r3,r3,128
     864:	18ffe004 	addi	r3,r3,-128
     868:	310cb03a 	or	r6,r6,r4
     86c:	294001c4 	addi	r5,r5,7
     870:	183ff516 	blt	r3,zero,848 <__alt_mem_VGA_Subsystem_Char_Buf_Subsystem_Onchip_SRAM+0xf7000848>
     874:	118d883a 	add	r6,r2,r6
     878:	89800315 	stw	r6,12(r17)
     87c:	10c00003 	ldbu	r3,0(r2)
     880:	000d883a 	mov	r6,zero
     884:	10800044 	addi	r2,r2,1
     888:	88c00545 	stb	r3,21(r17)
     88c:	000b883a 	mov	r5,zero
     890:	10c00003 	ldbu	r3,0(r2)
     894:	10800044 	addi	r2,r2,1
     898:	19001fcc 	andi	r4,r3,127
     89c:	2148983a 	sll	r4,r4,r5
     8a0:	18c03fcc 	andi	r3,r3,255
     8a4:	18c0201c 	xori	r3,r3,128
     8a8:	18ffe004 	addi	r3,r3,-128
     8ac:	310cb03a 	or	r6,r6,r4
     8b0:	294001c4 	addi	r5,r5,7
     8b4:	183ff616 	blt	r3,zero,890 <__alt_mem_VGA_Subsystem_Char_Buf_Subsystem_Onchip_SRAM+0xf7000890>
     8b8:	118d883a 	add	r6,r2,r6
     8bc:	89800415 	stw	r6,16(r17)
     8c0:	dfc00417 	ldw	ra,16(sp)
     8c4:	dcc00317 	ldw	r19,12(sp)
     8c8:	dc800217 	ldw	r18,8(sp)
     8cc:	dc400117 	ldw	r17,4(sp)
     8d0:	dc000017 	ldw	r16,0(sp)
     8d4:	dec00504 	addi	sp,sp,20
     8d8:	f800283a 	ret
     8dc:	88800115 	stw	r2,4(r17)
     8e0:	003fd006 	br	824 <__alt_mem_VGA_Subsystem_Char_Buf_Subsystem_Onchip_SRAM+0xf7000824>
     8e4:	0005883a 	mov	r2,zero
     8e8:	003fc006 	br	7ec <__alt_mem_VGA_Subsystem_Char_Buf_Subsystem_Onchip_SRAM+0xf70007ec>
     8ec:	88000315 	stw	zero,12(r17)
     8f0:	003fe206 	br	87c <__alt_mem_VGA_Subsystem_Char_Buf_Subsystem_Onchip_SRAM+0xf700087c>

000008f4 <_ZL16get_adjusted_ptrPKSt9type_infoS1_PPv.constprop.3>:
     8f4:	28800017 	ldw	r2,0(r5)
     8f8:	30c00017 	ldw	r3,0(r6)
     8fc:	defffb04 	addi	sp,sp,-20
     900:	10800217 	ldw	r2,8(r2)
     904:	dc400315 	stw	r17,12(sp)
     908:	dc000215 	stw	r16,8(sp)
     90c:	d9400115 	stw	r5,4(sp)
     910:	dfc00415 	stw	ra,16(sp)
     914:	2021883a 	mov	r16,r4
     918:	d8c00015 	stw	r3,0(sp)
     91c:	2809883a 	mov	r4,r5
     920:	3023883a 	mov	r17,r6
     924:	103ee83a 	callr	r2
     928:	10803fcc 	andi	r2,r2,255
     92c:	d9400117 	ldw	r5,4(sp)
     930:	10000326 	beq	r2,zero,940 <_ZL16get_adjusted_ptrPKSt9type_infoS1_PPv.constprop.3+0x4c>
     934:	d8800017 	ldw	r2,0(sp)
     938:	10800017 	ldw	r2,0(r2)
     93c:	d8800015 	stw	r2,0(sp)
     940:	80800017 	ldw	r2,0(r16)
     944:	01c00044 	movi	r7,1
     948:	d80d883a 	mov	r6,sp
     94c:	10800417 	ldw	r2,16(r2)
     950:	8009883a 	mov	r4,r16
     954:	103ee83a 	callr	r2
     958:	10c03fcc 	andi	r3,r2,255
     95c:	18000226 	beq	r3,zero,968 <_ZL16get_adjusted_ptrPKSt9type_infoS1_PPv.constprop.3+0x74>
     960:	d8c00017 	ldw	r3,0(sp)
     964:	88c00015 	stw	r3,0(r17)
     968:	dfc00417 	ldw	ra,16(sp)
     96c:	dc400317 	ldw	r17,12(sp)
     970:	dc000217 	ldw	r16,8(sp)
     974:	dec00504 	addi	sp,sp,20
     978:	f800283a 	ret

0000097c <_ZL28check_compact_exception_specPKSt9type_infoPvPKhij>:
     97c:	defff604 	addi	sp,sp,-40
     980:	dc000415 	stw	r16,16(sp)
     984:	3821d23a 	srai	r16,r7,8
     988:	dc800615 	stw	r18,24(sp)
     98c:	dc400515 	stw	r17,20(sp)
     990:	dfc00915 	stw	ra,36(sp)
     994:	dd000815 	stw	r20,32(sp)
     998:	dcc00715 	stw	r19,28(sp)
     99c:	d9400215 	stw	r5,8(sp)
     9a0:	3825883a 	mov	r18,r7
     9a4:	2023883a 	mov	r17,r4
     9a8:	8000010e 	bge	r16,zero,9b0 <_ZL28check_compact_exception_specPKSt9type_infoPvPKhij+0x34>
     9ac:	0421c83a 	sub	r16,zero,r16
     9b0:	000b883a 	mov	r5,zero
     9b4:	01000144 	movi	r4,5
     9b8:	d9800315 	stw	r6,12(sp)
     9bc:	00007340 	call	734 <_ZL21base_of_encoded_valuehP15_Unwind_Context>
     9c0:	d9800317 	ldw	r6,12(sp)
     9c4:	d9c00104 	addi	r7,sp,4
     9c8:	100b883a 	mov	r5,r2
     9cc:	01000144 	movi	r4,5
     9d0:	00004d40 	call	4d4 <_ZL28read_encoded_value_with_basehjPKhPj>
     9d4:	11fffe64 	muli	r7,r2,-7
     9d8:	0007883a 	mov	r3,zero
     9dc:	11400003 	ldbu	r5,0(r2)
     9e0:	110001e4 	muli	r4,r2,7
     9e4:	10800044 	addi	r2,r2,1
     9e8:	29801fcc 	andi	r6,r5,127
     9ec:	21c9883a 	add	r4,r4,r7
     9f0:	3108983a 	sll	r4,r6,r4
     9f4:	29403fcc 	andi	r5,r5,255
     9f8:	2940201c 	xori	r5,r5,128
     9fc:	297fe004 	addi	r5,r5,-128
     a00:	1906b03a 	or	r3,r3,r4
     a04:	283ff516 	blt	r5,zero,9dc <__alt_mem_VGA_Subsystem_Char_Buf_Subsystem_Onchip_SRAM+0xf70009dc>
     a08:	10c5883a 	add	r2,r2,r3
     a0c:	11fffe64 	muli	r7,r2,-7
     a10:	0009883a 	mov	r4,zero
     a14:	11400003 	ldbu	r5,0(r2)
     a18:	10c001e4 	muli	r3,r2,7
     a1c:	10800044 	addi	r2,r2,1
     a20:	29801fcc 	andi	r6,r5,127
     a24:	19c7883a 	add	r3,r3,r7
     a28:	30c6983a 	sll	r3,r6,r3
     a2c:	29403fcc 	andi	r5,r5,255
     a30:	2940201c 	xori	r5,r5,128
     a34:	297fe004 	addi	r5,r5,-128
     a38:	20c8b03a 	or	r4,r4,r3
     a3c:	283ff516 	blt	r5,zero,a14 <__alt_mem_VGA_Subsystem_Char_Buf_Subsystem_Onchip_SRAM+0xf7000a14>
     a40:	80c03fcc 	andi	r3,r16,255
     a44:	18ffffc4 	addi	r3,r3,-1
     a48:	10c7883a 	add	r3,r2,r3
     a4c:	210000c4 	addi	r4,r4,3
     a50:	197ffe64 	muli	r5,r3,-7
     a54:	2085883a 	add	r2,r4,r2
     a58:	04ffff04 	movi	r19,-4
     a5c:	14e6703a 	and	r19,r2,r19
     a60:	0021883a 	mov	r16,zero
     a64:	18800003 	ldbu	r2,0(r3)
     a68:	190001e4 	muli	r4,r3,7
     a6c:	1d000044 	addi	r20,r3,1
     a70:	10c01fcc 	andi	r3,r2,127
     a74:	2149883a 	add	r4,r4,r5
     a78:	1908983a 	sll	r4,r3,r4
     a7c:	10803fcc 	andi	r2,r2,255
     a80:	1080201c 	xori	r2,r2,128
     a84:	10bfe004 	addi	r2,r2,-128
     a88:	a007883a 	mov	r3,r20
     a8c:	8120b03a 	or	r16,r16,r4
     a90:	103ff416 	blt	r2,zero,a64 <__alt_mem_VGA_Subsystem_Char_Buf_Subsystem_Onchip_SRAM+0xf7000a64>
     a94:	94803fcc 	andi	r18,r18,255
     a98:	80001f26 	beq	r16,zero,b18 <_ZL28check_compact_exception_specPKSt9type_infoPvPKhij+0x19c>
     a9c:	9009883a 	mov	r4,r18
     aa0:	00004300 	call	430 <_ZL21size_of_encoded_valueh>
     aa4:	81bfffc4 	addi	r6,r16,-1
     aa8:	308d383a 	mul	r6,r6,r2
     aac:	d9400a17 	ldw	r5,40(sp)
     ab0:	d80f883a 	mov	r7,sp
     ab4:	9009883a 	mov	r4,r18
     ab8:	34cd883a 	add	r6,r6,r19
     abc:	00004d40 	call	4d4 <_ZL28read_encoded_value_with_basehjPKhPj>
     ac0:	d9000017 	ldw	r4,0(sp)
     ac4:	d9800204 	addi	r6,sp,8
     ac8:	880b883a 	mov	r5,r17
     acc:	00008f40 	call	8f4 <_ZL16get_adjusted_ptrPKSt9type_infoS1_PPv.constprop.3>
     ad0:	10c03fcc 	andi	r3,r2,255
     ad4:	1800111e 	bne	r3,zero,b1c <_ZL28check_compact_exception_specPKSt9type_infoPvPKhij+0x1a0>
     ad8:	a17ffe64 	muli	r5,r20,-7
     adc:	a007883a 	mov	r3,r20
     ae0:	0021883a 	mov	r16,zero
     ae4:	19000003 	ldbu	r4,0(r3)
     ae8:	18c001e4 	muli	r3,r3,7
     aec:	a5000044 	addi	r20,r20,1
     af0:	20801fcc 	andi	r2,r4,127
     af4:	1947883a 	add	r3,r3,r5
     af8:	10c4983a 	sll	r2,r2,r3
     afc:	21003fcc 	andi	r4,r4,255
     b00:	2100201c 	xori	r4,r4,128
     b04:	213fe004 	addi	r4,r4,-128
     b08:	a007883a 	mov	r3,r20
     b0c:	80a0b03a 	or	r16,r16,r2
     b10:	203ff416 	blt	r4,zero,ae4 <__alt_mem_VGA_Subsystem_Char_Buf_Subsystem_Onchip_SRAM+0xf7000ae4>
     b14:	003fe006 	br	a98 <__alt_mem_VGA_Subsystem_Char_Buf_Subsystem_Onchip_SRAM+0xf7000a98>
     b18:	0005883a 	mov	r2,zero
     b1c:	dfc00917 	ldw	ra,36(sp)
     b20:	dd000817 	ldw	r20,32(sp)
     b24:	dcc00717 	ldw	r19,28(sp)
     b28:	dc800617 	ldw	r18,24(sp)
     b2c:	dc400517 	ldw	r17,20(sp)
     b30:	dc000417 	ldw	r16,16(sp)
     b34:	dec00a04 	addi	sp,sp,40
     b38:	f800283a 	ret

00000b3c <_ZL20check_exception_specP16lsda_header_infoPKSt9type_infoPvl>:
     b3c:	defffb04 	addi	sp,sp,-20
     b40:	dc000115 	stw	r16,4(sp)
     b44:	24000317 	ldw	r16,12(r4)
     b48:	01ce303a 	nor	r7,zero,r7
     b4c:	dc800315 	stw	r18,12(sp)
     b50:	dc400215 	stw	r17,8(sp)
     b54:	dfc00415 	stw	ra,16(sp)
     b58:	2023883a 	mov	r17,r4
     b5c:	2825883a 	mov	r18,r5
     b60:	d9800015 	stw	r6,0(sp)
     b64:	81e1883a 	add	r16,r16,r7
     b68:	800d883a 	mov	r6,r16
     b6c:	000b883a 	mov	r5,zero
     b70:	0009883a 	mov	r4,zero
     b74:	30800003 	ldbu	r2,0(r6)
     b78:	84000044 	addi	r16,r16,1
     b7c:	800d883a 	mov	r6,r16
     b80:	10c01fcc 	andi	r3,r2,127
     b84:	1906983a 	sll	r3,r3,r4
     b88:	10803fcc 	andi	r2,r2,255
     b8c:	1080201c 	xori	r2,r2,128
     b90:	10bfe004 	addi	r2,r2,-128
     b94:	28cab03a 	or	r5,r5,r3
     b98:	210001c4 	addi	r4,r4,7
     b9c:	103ff516 	blt	r2,zero,b74 <__alt_mem_VGA_Subsystem_Char_Buf_Subsystem_Onchip_SRAM+0xf7000b74>
     ba0:	28000e26 	beq	r5,zero,bdc <_ZL20check_exception_specP16lsda_header_infoPKSt9type_infoPvl+0xa0>
     ba4:	8809883a 	mov	r4,r17
     ba8:	00006e00 	call	6e0 <_ZL15get_ttype_entryP16lsda_header_infom>
     bac:	d80d883a 	mov	r6,sp
     bb0:	900b883a 	mov	r5,r18
     bb4:	1009883a 	mov	r4,r2
     bb8:	00008f40 	call	8f4 <_ZL16get_adjusted_ptrPKSt9type_infoS1_PPv.constprop.3>
     bbc:	10c03fcc 	andi	r3,r2,255
     bc0:	183fe926 	beq	r3,zero,b68 <__alt_mem_VGA_Subsystem_Char_Buf_Subsystem_Onchip_SRAM+0xf7000b68>
     bc4:	dfc00417 	ldw	ra,16(sp)
     bc8:	dc800317 	ldw	r18,12(sp)
     bcc:	dc400217 	ldw	r17,8(sp)
     bd0:	dc000117 	ldw	r16,4(sp)
     bd4:	dec00504 	addi	sp,sp,20
     bd8:	f800283a 	ret
     bdc:	0005883a 	mov	r2,zero
     be0:	003ff806 	br	bc4 <__alt_mem_VGA_Subsystem_Char_Buf_Subsystem_Onchip_SRAM+0xf7000bc4>

00000be4 <__gxx_personality_sj0>:
     be4:	00800034 	movhi	r2,0
     be8:	deffdd04 	addi	sp,sp,-140
     bec:	1082f904 	addi	r2,r2,3044
     bf0:	d8800e15 	stw	r2,56(sp)
     bf4:	008000b4 	movhi	r2,2
     bf8:	10b08f04 	addi	r2,r2,-15812
     bfc:	d8800f15 	stw	r2,60(sp)
     c00:	00800034 	movhi	r2,0
     c04:	10846f04 	addi	r2,r2,4540
     c08:	d9001515 	stw	r4,84(sp)
     c0c:	d9000804 	addi	r4,sp,32
     c10:	d8801115 	stw	r2,68(sp)
     c14:	dfc02215 	stw	ra,136(sp)
     c18:	df002115 	stw	fp,132(sp)
     c1c:	dec01015 	stw	sp,64(sp)
     c20:	dec01215 	stw	sp,72(sp)
     c24:	d9401915 	stw	r5,100(sp)
     c28:	d9801615 	stw	r6,88(sp)
     c2c:	d9c01715 	stw	r7,92(sp)
     c30:	00023e40 	call	23e4 <_Unwind_SjLj_Register>
     c34:	d8c01517 	ldw	r3,84(sp)
     c38:	d8000715 	stw	zero,28(sp)
     c3c:	d8000615 	stw	zero,24(sp)
     c40:	00800044 	movi	r2,1
     c44:	18800926 	beq	r3,r2,c6c <__gxx_personality_sj0+0x88>
     c48:	01c000c4 	movi	r7,3
     c4c:	d9c01515 	stw	r7,84(sp)
     c50:	d9000804 	addi	r4,sp,32
     c54:	00023fc0 	call	23fc <_Unwind_SjLj_Unregister>
     c58:	d8801517 	ldw	r2,84(sp)
     c5c:	dfc02217 	ldw	ra,136(sp)
     c60:	df002117 	ldw	fp,132(sp)
     c64:	dec02304 	addi	sp,sp,140
     c68:	f800283a 	ret
     c6c:	d9001617 	ldw	r4,88(sp)
     c70:	00af3574 	movhi	r2,48341
     c74:	d9c01717 	ldw	r7,92(sp)
     c78:	10b54004 	addi	r2,r2,-11008
     c7c:	00ee2cb4 	movhi	r3,47282
     c80:	2085883a 	add	r2,r4,r2
     c84:	18eaaf04 	addi	r3,r3,-21828
     c88:	d8801b15 	stw	r2,108(sp)
     c8c:	38c7883a 	add	r3,r7,r3
     c90:	1105803a 	cmpltu	r2,r2,r4
     c94:	10c7883a 	add	r3,r2,r3
     c98:	d8c01c15 	stw	r3,112(sp)
     c9c:	d8c01917 	ldw	r3,100(sp)
     ca0:	00800184 	movi	r2,6
     ca4:	18805426 	beq	r3,r2,df8 <__gxx_personality_sj0+0x214>
     ca8:	d9002417 	ldw	r4,144(sp)
     cac:	00bfffc4 	movi	r2,-1
     cb0:	d8800915 	stw	r2,36(sp)
     cb4:	00024a00 	call	24a0 <_Unwind_GetLanguageSpecificData>
     cb8:	d8801a15 	stw	r2,104(sp)
     cbc:	1000c926 	beq	r2,zero,fe4 <__gxx_personality_sj0+0x400>
     cc0:	d9002417 	ldw	r4,144(sp)
     cc4:	d80d883a 	mov	r6,sp
     cc8:	100b883a 	mov	r5,r2
     ccc:	00007c00 	call	7c0 <_ZL17parse_lsda_headerP15_Unwind_ContextPKhP16lsda_header_info>
     cd0:	d9402417 	ldw	r5,144(sp)
     cd4:	d9000503 	ldbu	r4,20(sp)
     cd8:	d8801515 	stw	r2,84(sp)
     cdc:	00007340 	call	734 <_ZL21base_of_encoded_valuehP15_Unwind_Context>
     ce0:	d9002417 	ldw	r4,144(sp)
     ce4:	d9400604 	addi	r5,sp,24
     ce8:	d8800215 	stw	r2,8(sp)
     cec:	00024700 	call	2470 <_Unwind_GetIPInfo>
     cf0:	d8c00617 	ldw	r3,24(sp)
     cf4:	18006126 	beq	r3,zero,e7c <__gxx_personality_sj0+0x298>
     cf8:	1000ba16 	blt	r2,zero,fe4 <__gxx_personality_sj0+0x400>
     cfc:	10002f1e 	bne	r2,zero,dbc <__gxx_personality_sj0+0x1d8>
     d00:	d8001515 	stw	zero,84(sp)
     d04:	d8001f15 	stw	zero,124(sp)
     d08:	d8001815 	stw	zero,96(sp)
     d0c:	00c00044 	movi	r3,1
     d10:	d9001917 	ldw	r4,100(sp)
     d14:	2080004c 	andi	r2,r4,1
     d18:	1000b51e 	bne	r2,zero,ff0 <__gxx_personality_sj0+0x40c>
     d1c:	d9001917 	ldw	r4,100(sp)
     d20:	2080020c 	andi	r2,r4,8
     d24:	1000b71e 	bne	r2,zero,1004 <__gxx_personality_sj0+0x420>
     d28:	d9c01c17 	ldw	r7,112(sp)
     d2c:	3800b826 	beq	r7,zero,1010 <__gxx_personality_sj0+0x42c>
     d30:	00800044 	movi	r2,1
     d34:	1880b526 	beq	r3,r2,100c <__gxx_personality_sj0+0x428>
     d38:	d9c01517 	ldw	r7,84(sp)
     d3c:	3800f516 	blt	r7,zero,1114 <__gxx_personality_sj0+0x530>
     d40:	d9002417 	ldw	r4,144(sp)
     d44:	d9802317 	ldw	r6,140(sp)
     d48:	00bfffc4 	movi	r2,-1
     d4c:	000b883a 	mov	r5,zero
     d50:	d8800915 	stw	r2,36(sp)
     d54:	00024440 	call	2444 <_Unwind_SetGR>
     d58:	d9801517 	ldw	r6,84(sp)
     d5c:	d9002417 	ldw	r4,144(sp)
     d60:	01400044 	movi	r5,1
     d64:	00024440 	call	2444 <_Unwind_SetGR>
     d68:	d9002417 	ldw	r4,144(sp)
     d6c:	d9401f17 	ldw	r5,124(sp)
     d70:	00024900 	call	2490 <_Unwind_SetIP>
     d74:	010001c4 	movi	r4,7
     d78:	d9001515 	stw	r4,84(sp)
     d7c:	003fb406 	br	c50 <__alt_mem_VGA_Subsystem_Char_Buf_Subsystem_Onchip_SRAM+0xf7000c50>
     d80:	000f883a 	mov	r7,zero
     d84:	000d883a 	mov	r6,zero
     d88:	19000003 	ldbu	r4,0(r3)
     d8c:	18c00044 	addi	r3,r3,1
     d90:	d8c01515 	stw	r3,84(sp)
     d94:	21401fcc 	andi	r5,r4,127
     d98:	298a983a 	sll	r5,r5,r6
     d9c:	21003fcc 	andi	r4,r4,255
     da0:	2100201c 	xori	r4,r4,128
     da4:	213fe004 	addi	r4,r4,-128
     da8:	394eb03a 	or	r7,r7,r5
     dac:	318001c4 	addi	r6,r6,7
     db0:	203ff516 	blt	r4,zero,d88 <__alt_mem_VGA_Subsystem_Char_Buf_Subsystem_Onchip_SRAM+0xf7000d88>
     db4:	10bfffc4 	addi	r2,r2,-1
     db8:	10003226 	beq	r2,zero,e84 <__gxx_personality_sj0+0x2a0>
     dbc:	d9c01517 	ldw	r7,84(sp)
     dc0:	0011883a 	mov	r8,zero
     dc4:	000d883a 	mov	r6,zero
     dc8:	39000003 	ldbu	r4,0(r7)
     dcc:	38c00044 	addi	r3,r7,1
     dd0:	180f883a 	mov	r7,r3
     dd4:	21401fcc 	andi	r5,r4,127
     dd8:	298a983a 	sll	r5,r5,r6
     ddc:	21003fcc 	andi	r4,r4,255
     de0:	2100201c 	xori	r4,r4,128
     de4:	213fe004 	addi	r4,r4,-128
     de8:	4150b03a 	or	r8,r8,r5
     dec:	318001c4 	addi	r6,r6,7
     df0:	203ff516 	blt	r4,zero,dc8 <__alt_mem_VGA_Subsystem_Char_Buf_Subsystem_Onchip_SRAM+0xf7000dc8>
     df4:	003fe206 	br	d80 <__alt_mem_VGA_Subsystem_Char_Buf_Subsystem_Onchip_SRAM+0xf7000d80>
     df8:	d9001c17 	ldw	r4,112(sp)
     dfc:	203faa1e 	bne	r4,zero,ca8 <__alt_mem_VGA_Subsystem_Char_Buf_Subsystem_Onchip_SRAM+0xf7000ca8>
     e00:	d9c01517 	ldw	r7,84(sp)
     e04:	d8801b17 	ldw	r2,108(sp)
     e08:	38bfa736 	bltu	r7,r2,ca8 <__alt_mem_VGA_Subsystem_Char_Buf_Subsystem_Onchip_SRAM+0xf7000ca8>
     e0c:	d8c02317 	ldw	r3,140(sp)
     e10:	18fffe17 	ldw	r3,-8(r3)
     e14:	d8c01f15 	stw	r3,124(sp)
     e18:	18008226 	beq	r3,zero,1024 <__gxx_personality_sj0+0x440>
     e1c:	d9002317 	ldw	r4,140(sp)
     e20:	d9c02317 	ldw	r7,140(sp)
     e24:	213ffb17 	ldw	r4,-20(r4)
     e28:	39fffd17 	ldw	r7,-12(r7)
     e2c:	d9001515 	stw	r4,84(sp)
     e30:	d9c01a15 	stw	r7,104(sp)
     e34:	d8801517 	ldw	r2,84(sp)
     e38:	103fc10e 	bge	r2,zero,d40 <__alt_mem_VGA_Subsystem_Char_Buf_Subsystem_Onchip_SRAM+0xf7000d40>
     e3c:	d9002417 	ldw	r4,144(sp)
     e40:	d9401a17 	ldw	r5,104(sp)
     e44:	d80d883a 	mov	r6,sp
     e48:	00bfffc4 	movi	r2,-1
     e4c:	d8800915 	stw	r2,36(sp)
     e50:	00007c00 	call	7c0 <_ZL17parse_lsda_headerP15_Unwind_ContextPKhP16lsda_header_info>
     e54:	d9402417 	ldw	r5,144(sp)
     e58:	d9000503 	ldbu	r4,20(sp)
     e5c:	00007340 	call	734 <_ZL21base_of_encoded_valuehP15_Unwind_Context>
     e60:	d9000503 	ldbu	r4,20(sp)
     e64:	d9402417 	ldw	r5,144(sp)
     e68:	d8800215 	stw	r2,8(sp)
     e6c:	00007340 	call	734 <_ZL21base_of_encoded_valuehP15_Unwind_Context>
     e70:	d8c02317 	ldw	r3,140(sp)
     e74:	18bffe15 	stw	r2,-8(r3)
     e78:	003fb106 	br	d40 <__alt_mem_VGA_Subsystem_Char_Buf_Subsystem_Onchip_SRAM+0xf7000d40>
     e7c:	10bfffc4 	addi	r2,r2,-1
     e80:	003f9d06 	br	cf8 <__alt_mem_VGA_Subsystem_Char_Buf_Subsystem_Onchip_SRAM+0xf7000cf8>
     e84:	42000044 	addi	r8,r8,1
     e88:	da001f15 	stw	r8,124(sp)
     e8c:	38005326 	beq	r7,zero,fdc <__gxx_personality_sj0+0x3f8>
     e90:	d8800417 	ldw	r2,16(sp)
     e94:	39ffffc4 	addi	r7,r7,-1
     e98:	11c5883a 	add	r2,r2,r7
     e9c:	d8801815 	stw	r2,96(sp)
     ea0:	40005026 	beq	r8,zero,fe4 <__gxx_personality_sj0+0x400>
     ea4:	10007426 	beq	r2,zero,1078 <__gxx_personality_sj0+0x494>
     ea8:	d8801917 	ldw	r2,100(sp)
     eac:	1080020c 	andi	r2,r2,8
     eb0:	d8802015 	stw	r2,128(sp)
     eb4:	1000a21e 	bne	r2,zero,1140 <__gxx_personality_sj0+0x55c>
     eb8:	d8c01c17 	ldw	r3,112(sp)
     ebc:	1800b026 	beq	r3,zero,1180 <__gxx_personality_sj0+0x59c>
     ec0:	01c000b4 	movhi	r7,2
     ec4:	39faca04 	addi	r7,r7,-5336
     ec8:	d9c01e15 	stw	r7,120(sp)
     ecc:	d8001d05 	stb	zero,116(sp)
     ed0:	d8c01817 	ldw	r3,96(sp)
     ed4:	d8001515 	stw	zero,84(sp)
     ed8:	0009883a 	mov	r4,zero
     edc:	19400003 	ldbu	r5,0(r3)
     ee0:	18800044 	addi	r2,r3,1
     ee4:	d9c01517 	ldw	r7,84(sp)
     ee8:	28c01fcc 	andi	r3,r5,127
     eec:	1906983a 	sll	r3,r3,r4
     ef0:	29803fcc 	andi	r6,r5,255
     ef4:	3180201c 	xori	r6,r6,128
     ef8:	38ceb03a 	or	r7,r7,r3
     efc:	d8801715 	stw	r2,92(sp)
     f00:	31bfe004 	addi	r6,r6,-128
     f04:	d9c01515 	stw	r7,84(sp)
     f08:	210001c4 	addi	r4,r4,7
     f0c:	1007883a 	mov	r3,r2
     f10:	303ff216 	blt	r6,zero,edc <__alt_mem_VGA_Subsystem_Char_Buf_Subsystem_Onchip_SRAM+0xf7000edc>
     f14:	00c007c4 	movi	r3,31
     f18:	19000836 	bltu	r3,r4,f3c <__gxx_personality_sj0+0x358>
     f1c:	2940100c 	andi	r5,r5,64
     f20:	28000626 	beq	r5,zero,f3c <__gxx_personality_sj0+0x358>
     f24:	01c00044 	movi	r7,1
     f28:	3908983a 	sll	r4,r7,r4
     f2c:	d8c01517 	ldw	r3,84(sp)
     f30:	0109c83a 	sub	r4,zero,r4
     f34:	1906b03a 	or	r3,r3,r4
     f38:	d8c01515 	stw	r3,84(sp)
     f3c:	d8001615 	stw	zero,88(sp)
     f40:	0009883a 	mov	r4,zero
     f44:	11400003 	ldbu	r5,0(r2)
     f48:	d9c01617 	ldw	r7,88(sp)
     f4c:	10800044 	addi	r2,r2,1
     f50:	28c01fcc 	andi	r3,r5,127
     f54:	1906983a 	sll	r3,r3,r4
     f58:	29803fcc 	andi	r6,r5,255
     f5c:	3180201c 	xori	r6,r6,128
     f60:	38ceb03a 	or	r7,r7,r3
     f64:	31bfe004 	addi	r6,r6,-128
     f68:	d9c01615 	stw	r7,88(sp)
     f6c:	210001c4 	addi	r4,r4,7
     f70:	303ff416 	blt	r6,zero,f44 <__alt_mem_VGA_Subsystem_Char_Buf_Subsystem_Onchip_SRAM+0xf7000f44>
     f74:	008007c4 	movi	r2,31
     f78:	11000736 	bltu	r2,r4,f98 <__gxx_personality_sj0+0x3b4>
     f7c:	2940100c 	andi	r5,r5,64
     f80:	28000526 	beq	r5,zero,f98 <__gxx_personality_sj0+0x3b4>
     f84:	00c00044 	movi	r3,1
     f88:	1908983a 	sll	r4,r3,r4
     f8c:	0109c83a 	sub	r4,zero,r4
     f90:	390eb03a 	or	r7,r7,r4
     f94:	d9c01615 	stw	r7,88(sp)
     f98:	d9001517 	ldw	r4,84(sp)
     f9c:	20003c26 	beq	r4,zero,1090 <__gxx_personality_sj0+0x4ac>
     fa0:	01003e0e 	bge	zero,r4,109c <__gxx_personality_sj0+0x4b8>
     fa4:	01ffffc4 	movi	r7,-1
     fa8:	200b883a 	mov	r5,r4
     fac:	d809883a 	mov	r4,sp
     fb0:	d9c00915 	stw	r7,36(sp)
     fb4:	00006e00 	call	6e0 <_ZL15get_ttype_entryP16lsda_header_infom>
     fb8:	10005f26 	beq	r2,zero,1138 <__gxx_personality_sj0+0x554>
     fbc:	d8c01e17 	ldw	r3,120(sp)
     fc0:	1800571e 	bne	r3,zero,1120 <__gxx_personality_sj0+0x53c>
     fc4:	d9001617 	ldw	r4,88(sp)
     fc8:	20002926 	beq	r4,zero,1070 <__gxx_personality_sj0+0x48c>
     fcc:	d9c01717 	ldw	r7,92(sp)
     fd0:	390f883a 	add	r7,r7,r4
     fd4:	d9c01815 	stw	r7,96(sp)
     fd8:	003fbd06 	br	ed0 <__alt_mem_VGA_Subsystem_Char_Buf_Subsystem_Onchip_SRAM+0xf7000ed0>
     fdc:	d8c01f17 	ldw	r3,124(sp)
     fe0:	1800251e 	bne	r3,zero,1078 <__gxx_personality_sj0+0x494>
     fe4:	01000204 	movi	r4,8
     fe8:	d9001515 	stw	r4,84(sp)
     fec:	003f1806 	br	c50 <__alt_mem_VGA_Subsystem_Char_Buf_Subsystem_Onchip_SRAM+0xf7000c50>
     ff0:	d8801c17 	ldw	r2,112(sp)
     ff4:	10000d26 	beq	r2,zero,102c <__gxx_personality_sj0+0x448>
     ff8:	00800184 	movi	r2,6
     ffc:	d8801515 	stw	r2,84(sp)
    1000:	003f1306 	br	c50 <__alt_mem_VGA_Subsystem_Char_Buf_Subsystem_Onchip_SRAM+0xf7000c50>
    1004:	00800044 	movi	r2,1
    1008:	18bf4d1e 	bne	r3,r2,d40 <__alt_mem_VGA_Subsystem_Char_Buf_Subsystem_Onchip_SRAM+0xf7000d40>
    100c:	00017bc0 	call	17bc <_ZSt9terminatev>
    1010:	d9001b17 	ldw	r4,108(sp)
    1014:	00800044 	movi	r2,1
    1018:	113f4536 	bltu	r2,r4,d30 <__alt_mem_VGA_Subsystem_Char_Buf_Subsystem_Onchip_SRAM+0xf7000d30>
    101c:	00800044 	movi	r2,1
    1020:	18bf841e 	bne	r3,r2,e34 <__alt_mem_VGA_Subsystem_Char_Buf_Subsystem_Onchip_SRAM+0xf7000e34>
    1024:	d9002317 	ldw	r4,140(sp)
    1028:	0001b080 	call	1b08 <__cxa_call_terminate>
    102c:	d8c01b17 	ldw	r3,108(sp)
    1030:	00800044 	movi	r2,1
    1034:	10fff036 	bltu	r2,r3,ff8 <__alt_mem_VGA_Subsystem_Char_Buf_Subsystem_Onchip_SRAM+0xf7000ff8>
    1038:	d9002317 	ldw	r4,140(sp)
    103c:	d8801817 	ldw	r2,96(sp)
    1040:	d9c01517 	ldw	r7,84(sp)
    1044:	d8c01a17 	ldw	r3,104(sp)
    1048:	20bffc15 	stw	r2,-16(r4)
    104c:	d8800717 	ldw	r2,28(sp)
    1050:	21fffb15 	stw	r7,-20(r4)
    1054:	d9c01f17 	ldw	r7,124(sp)
    1058:	20bfff15 	stw	r2,-4(r4)
    105c:	00800184 	movi	r2,6
    1060:	20fffd15 	stw	r3,-12(r4)
    1064:	21fffe15 	stw	r7,-8(r4)
    1068:	d8801515 	stw	r2,84(sp)
    106c:	003ef806 	br	c50 <__alt_mem_VGA_Subsystem_Char_Buf_Subsystem_Onchip_SRAM+0xf7000c50>
    1070:	d8801d03 	ldbu	r2,116(sp)
    1074:	103fdb26 	beq	r2,zero,fe4 <__alt_mem_VGA_Subsystem_Char_Buf_Subsystem_Onchip_SRAM+0xf7000fe4>
    1078:	d8c01917 	ldw	r3,100(sp)
    107c:	1880004c 	andi	r2,r3,1
    1080:	103fd81e 	bne	r2,zero,fe4 <__alt_mem_VGA_Subsystem_Char_Buf_Subsystem_Onchip_SRAM+0xf7000fe4>
    1084:	d8001515 	stw	zero,84(sp)
    1088:	00c00084 	movi	r3,2
    108c:	003f2306 	br	d1c <__alt_mem_VGA_Subsystem_Char_Buf_Subsystem_Onchip_SRAM+0xf7000d1c>
    1090:	00c00044 	movi	r3,1
    1094:	d8c01d05 	stb	r3,116(sp)
    1098:	003fca06 	br	fc4 <__alt_mem_VGA_Subsystem_Char_Buf_Subsystem_Onchip_SRAM+0xf7000fc4>
    109c:	d9001e17 	ldw	r4,120(sp)
    10a0:	20000426 	beq	r4,zero,10b4 <__gxx_personality_sj0+0x4d0>
    10a4:	d9c02017 	ldw	r7,128(sp)
    10a8:	3800021e 	bne	r7,zero,10b4 <__gxx_personality_sj0+0x4d0>
    10ac:	d8801c17 	ldw	r2,112(sp)
    10b0:	10002726 	beq	r2,zero,1150 <__gxx_personality_sj0+0x56c>
    10b4:	d8801517 	ldw	r2,84(sp)
    10b8:	000d883a 	mov	r6,zero
    10bc:	000b883a 	mov	r5,zero
    10c0:	0088303a 	nor	r4,zero,r2
    10c4:	d8800317 	ldw	r2,12(sp)
    10c8:	1109883a 	add	r4,r2,r4
    10cc:	20800003 	ldbu	r2,0(r4)
    10d0:	21000044 	addi	r4,r4,1
    10d4:	10c01fcc 	andi	r3,r2,127
    10d8:	1946983a 	sll	r3,r3,r5
    10dc:	10803fcc 	andi	r2,r2,255
    10e0:	1080201c 	xori	r2,r2,128
    10e4:	10bfe004 	addi	r2,r2,-128
    10e8:	30ccb03a 	or	r6,r6,r3
    10ec:	294001c4 	addi	r5,r5,7
    10f0:	103ff616 	blt	r2,zero,10cc <__alt_mem_VGA_Subsystem_Char_Buf_Subsystem_Onchip_SRAM+0xf70010cc>
    10f4:	3005003a 	cmpeq	r2,r6,zero
    10f8:	10803fcc 	andi	r2,r2,255
    10fc:	103fb126 	beq	r2,zero,fc4 <__alt_mem_VGA_Subsystem_Char_Buf_Subsystem_Onchip_SRAM+0xf7000fc4>
    1100:	d9c01917 	ldw	r7,100(sp)
    1104:	3880004c 	andi	r2,r7,1
    1108:	103fb91e 	bne	r2,zero,ff0 <__alt_mem_VGA_Subsystem_Char_Buf_Subsystem_Onchip_SRAM+0xf7000ff0>
    110c:	d8802017 	ldw	r2,128(sp)
    1110:	10002d26 	beq	r2,zero,11c8 <__gxx_personality_sj0+0x5e4>
    1114:	00800044 	movi	r2,1
    1118:	d8800915 	stw	r2,36(sp)
    111c:	00017e40 	call	17e4 <_ZSt10unexpectedv>
    1120:	d9800704 	addi	r6,sp,28
    1124:	180b883a 	mov	r5,r3
    1128:	1009883a 	mov	r4,r2
    112c:	00008f40 	call	8f4 <_ZL16get_adjusted_ptrPKSt9type_infoS1_PPv.constprop.3>
    1130:	10803fcc 	andi	r2,r2,255
    1134:	103fa326 	beq	r2,zero,fc4 <__alt_mem_VGA_Subsystem_Char_Buf_Subsystem_Onchip_SRAM+0xf7000fc4>
    1138:	00c000c4 	movi	r3,3
    113c:	003ef406 	br	d10 <__alt_mem_VGA_Subsystem_Char_Buf_Subsystem_Onchip_SRAM+0xf7000d10>
    1140:	010000b4 	movhi	r4,2
    1144:	213ac804 	addi	r4,r4,-5344
    1148:	d9001e15 	stw	r4,120(sp)
    114c:	003f5f06 	br	ecc <__alt_mem_VGA_Subsystem_Char_Buf_Subsystem_Onchip_SRAM+0xf7000ecc>
    1150:	d9001b17 	ldw	r4,108(sp)
    1154:	00c00044 	movi	r3,1
    1158:	193fd636 	bltu	r3,r4,10b4 <__alt_mem_VGA_Subsystem_Char_Buf_Subsystem_Onchip_SRAM+0xf70010b4>
    115c:	01ffffc4 	movi	r7,-1
    1160:	d9c00915 	stw	r7,36(sp)
    1164:	d9800717 	ldw	r6,28(sp)
    1168:	d9c01517 	ldw	r7,84(sp)
    116c:	d9401e17 	ldw	r5,120(sp)
    1170:	d809883a 	mov	r4,sp
    1174:	0000b3c0 	call	b3c <_ZL20check_exception_specP16lsda_header_infoPKSt9type_infoPvl>
    1178:	1080005c 	xori	r2,r2,1
    117c:	003fde06 	br	10f8 <__alt_mem_VGA_Subsystem_Char_Buf_Subsystem_Onchip_SRAM+0xf70010f8>
    1180:	d9001b17 	ldw	r4,108(sp)
    1184:	00800044 	movi	r2,1
    1188:	113f4d36 	bltu	r2,r4,ec0 <__alt_mem_VGA_Subsystem_Char_Buf_Subsystem_Onchip_SRAM+0xf7000ec0>
    118c:	d9c02317 	ldw	r7,140(sp)
    1190:	38800017 	ldw	r2,0(r7)
    1194:	1080004c 	andi	r2,r2,1
    1198:	1000061e 	bne	r2,zero,11b4 <__gxx_personality_sj0+0x5d0>
    119c:	d8c02317 	ldw	r3,140(sp)
    11a0:	18800504 	addi	r2,r3,20
    11a4:	d8800715 	stw	r2,28(sp)
    11a8:	10bff017 	ldw	r2,-64(r2)
    11ac:	d8801e15 	stw	r2,120(sp)
    11b0:	003f4606 	br	ecc <__alt_mem_VGA_Subsystem_Char_Buf_Subsystem_Onchip_SRAM+0xf7000ecc>
    11b4:	38bff517 	ldw	r2,-44(r7)
    11b8:	003ffa06 	br	11a4 <__alt_mem_VGA_Subsystem_Char_Buf_Subsystem_Onchip_SRAM+0xf70011a4>
    11bc:	d9000a17 	ldw	r4,40(sp)
    11c0:	00015740 	call	1574 <__cxa_begin_catch>
    11c4:	003f9106 	br	100c <__alt_mem_VGA_Subsystem_Char_Buf_Subsystem_Onchip_SRAM+0xf700100c>
    11c8:	d9c01c17 	ldw	r7,112(sp)
    11cc:	383eda1e 	bne	r7,zero,d38 <__alt_mem_VGA_Subsystem_Char_Buf_Subsystem_Onchip_SRAM+0xf7000d38>
    11d0:	d8c01b17 	ldw	r3,108(sp)
    11d4:	00800044 	movi	r2,1
    11d8:	10fed736 	bltu	r2,r3,d38 <__alt_mem_VGA_Subsystem_Char_Buf_Subsystem_Onchip_SRAM+0xf7000d38>
    11dc:	00c000c4 	movi	r3,3
    11e0:	003f8e06 	br	101c <__alt_mem_VGA_Subsystem_Char_Buf_Subsystem_Onchip_SRAM+0xf700101c>

000011e4 <__cxa_call_unexpected>:
    11e4:	00800034 	movhi	r2,0
    11e8:	deffe604 	addi	sp,sp,-104
    11ec:	1082f904 	addi	r2,r2,3044
    11f0:	d8800d15 	stw	r2,52(sp)
    11f4:	008000b4 	movhi	r2,2
    11f8:	10b09304 	addi	r2,r2,-15796
    11fc:	d8800e15 	stw	r2,56(sp)
    1200:	d8800104 	addi	r2,sp,4
    1204:	d8800f15 	stw	r2,60(sp)
    1208:	00800034 	movhi	r2,0
    120c:	10849c04 	addi	r2,r2,4720
    1210:	d9001415 	stw	r4,80(sp)
    1214:	d9000704 	addi	r4,sp,28
    1218:	dfc01915 	stw	ra,100(sp)
    121c:	d8801015 	stw	r2,64(sp)
    1220:	df001815 	stw	fp,96(sp)
    1224:	dec01115 	stw	sp,68(sp)
    1228:	00023e40 	call	23e4 <_Unwind_SjLj_Register>
    122c:	d9001417 	ldw	r4,80(sp)
    1230:	00015740 	call	1574 <__cxa_begin_catch>
    1234:	d8c01417 	ldw	r3,80(sp)
    1238:	18bffe17 	ldw	r2,-8(r3)
    123c:	193ff717 	ldw	r4,-36(r3)
    1240:	18fffd17 	ldw	r3,-12(r3)
    1244:	d8800315 	stw	r2,12(sp)
    1248:	d8c01615 	stw	r3,88(sp)
    124c:	d8c01417 	ldw	r3,80(sp)
    1250:	18fffb17 	ldw	r3,-20(r3)
    1254:	d8c01515 	stw	r3,84(sp)
    1258:	d8c01417 	ldw	r3,80(sp)
    125c:	18fff817 	ldw	r3,-32(r3)
    1260:	d8c01415 	stw	r3,80(sp)
    1264:	00c00044 	movi	r3,1
    1268:	d8c00815 	stw	r3,32(sp)
    126c:	00017d40 	call	17d4 <_ZN10__cxxabiv112__unexpectedEPFvvE>
    1270:	d8c00917 	ldw	r3,36(sp)
    1274:	d8800817 	ldw	r2,32(sp)
    1278:	d8c01715 	stw	r3,92(sp)
    127c:	10000a26 	beq	r2,zero,12a8 <__cxa_call_unexpected+0xc4>
    1280:	10bfffc4 	addi	r2,r2,-1
    1284:	10000126 	beq	r2,zero,128c <__cxa_call_unexpected+0xa8>
    1288:	003b68fa 	trap	3
    128c:	d8000815 	stw	zero,32(sp)
    1290:	00016280 	call	1628 <__cxa_end_catch>
    1294:	00016280 	call	1628 <__cxa_end_catch>
    1298:	d9001717 	ldw	r4,92(sp)
    129c:	00bfffc4 	movi	r2,-1
    12a0:	d8800815 	stw	r2,32(sp)
    12a4:	00025e00 	call	25e0 <_Unwind_SjLj_Resume>
    12a8:	d9001717 	ldw	r4,92(sp)
    12ac:	00015740 	call	1574 <__cxa_begin_catch>
    12b0:	0001b600 	call	1b60 <__cxa_get_globals_fast>
    12b4:	10800017 	ldw	r2,0(r2)
    12b8:	10c00b17 	ldw	r3,44(r2)
    12bc:	18c0004c 	andi	r3,r3,1
    12c0:	18001e26 	beq	r3,zero,133c <__cxa_call_unexpected+0x158>
    12c4:	10800017 	ldw	r2,0(r2)
    12c8:	d8801715 	stw	r2,92(sp)
    12cc:	d8801517 	ldw	r2,84(sp)
    12d0:	00802b0e 	bge	zero,r2,1380 <__cxa_call_unexpected+0x19c>
    12d4:	d8c01717 	ldw	r3,92(sp)
    12d8:	d8800317 	ldw	r2,12(sp)
    12dc:	d9c01517 	ldw	r7,84(sp)
    12e0:	193ff017 	ldw	r4,-64(r3)
    12e4:	d9801617 	ldw	r6,88(sp)
    12e8:	d8800015 	stw	r2,0(sp)
    12ec:	180b883a 	mov	r5,r3
    12f0:	00800084 	movi	r2,2
    12f4:	d8800815 	stw	r2,32(sp)
    12f8:	000097c0 	call	97c <_ZL28check_compact_exception_specPKSt9type_infoPvPKhij>
    12fc:	10803fcc 	andi	r2,r2,255
    1300:	10001e1e 	bne	r2,zero,137c <__cxa_call_unexpected+0x198>
    1304:	d8800317 	ldw	r2,12(sp)
    1308:	d9c01517 	ldw	r7,84(sp)
    130c:	d9801617 	ldw	r6,88(sp)
    1310:	010000b4 	movhi	r4,2
    1314:	d8800015 	stw	r2,0(sp)
    1318:	2130c204 	addi	r4,r4,-15608
    131c:	00800084 	movi	r2,2
    1320:	000b883a 	mov	r5,zero
    1324:	d8800815 	stw	r2,32(sp)
    1328:	000097c0 	call	97c <_ZL28check_compact_exception_specPKSt9type_infoPvPKhij>
    132c:	10803fcc 	andi	r2,r2,255
    1330:	1000051e 	bne	r2,zero,1348 <__cxa_call_unexpected+0x164>
    1334:	d9001417 	ldw	r4,80(sp)
    1338:	00016fc0 	call	16fc <_ZN10__cxxabiv111__terminateEPFvvE>
    133c:	10801004 	addi	r2,r2,64
    1340:	d8801715 	stw	r2,92(sp)
    1344:	003fe106 	br	12cc <__alt_mem_VGA_Subsystem_Char_Buf_Subsystem_Onchip_SRAM+0xf70012cc>
    1348:	01000104 	movi	r4,4
    134c:	00019a40 	call	19a4 <__cxa_allocate_exception>
    1350:	00c000b4 	movhi	r3,2
    1354:	18f0dd04 	addi	r3,r3,-15500
    1358:	01800034 	movhi	r6,0
    135c:	014000b4 	movhi	r5,2
    1360:	10c00015 	stw	r3,0(r2)
    1364:	3186df04 	addi	r6,r6,7036
    1368:	00c00084 	movi	r3,2
    136c:	2970c204 	addi	r5,r5,-15608
    1370:	1009883a 	mov	r4,r2
    1374:	d8c00815 	stw	r3,32(sp)
    1378:	00014580 	call	1458 <__cxa_throw>
    137c:	00014e80 	call	14e8 <__cxa_rethrow>
    1380:	d9401617 	ldw	r5,88(sp)
    1384:	00800084 	movi	r2,2
    1388:	d9800104 	addi	r6,sp,4
    138c:	0009883a 	mov	r4,zero
    1390:	d8800815 	stw	r2,32(sp)
    1394:	00007c00 	call	7c0 <_ZL17parse_lsda_headerP15_Unwind_ContextPKhP16lsda_header_info>
    1398:	d9801717 	ldw	r6,92(sp)
    139c:	d9c01517 	ldw	r7,84(sp)
    13a0:	d9000104 	addi	r4,sp,4
    13a4:	317ff017 	ldw	r5,-64(r6)
    13a8:	0000b3c0 	call	b3c <_ZL20check_exception_specP16lsda_header_infoPKSt9type_infoPvl>
    13ac:	10803fcc 	andi	r2,r2,255
    13b0:	1000171e 	bne	r2,zero,1410 <__cxa_call_unexpected+0x22c>
    13b4:	d9c01517 	ldw	r7,84(sp)
    13b8:	014000b4 	movhi	r5,2
    13bc:	00800084 	movi	r2,2
    13c0:	2970c204 	addi	r5,r5,-15608
    13c4:	000d883a 	mov	r6,zero
    13c8:	d9000104 	addi	r4,sp,4
    13cc:	d8800815 	stw	r2,32(sp)
    13d0:	0000b3c0 	call	b3c <_ZL20check_exception_specP16lsda_header_infoPKSt9type_infoPvl>
    13d4:	10803fcc 	andi	r2,r2,255
    13d8:	103fd626 	beq	r2,zero,1334 <__alt_mem_VGA_Subsystem_Char_Buf_Subsystem_Onchip_SRAM+0xf7001334>
    13dc:	01000104 	movi	r4,4
    13e0:	00019a40 	call	19a4 <__cxa_allocate_exception>
    13e4:	00c000b4 	movhi	r3,2
    13e8:	18f0dd04 	addi	r3,r3,-15500
    13ec:	01800034 	movhi	r6,0
    13f0:	014000b4 	movhi	r5,2
    13f4:	10c00015 	stw	r3,0(r2)
    13f8:	3186df04 	addi	r6,r6,7036
    13fc:	00c00084 	movi	r3,2
    1400:	2970c204 	addi	r5,r5,-15608
    1404:	1009883a 	mov	r4,r2
    1408:	d8c00815 	stw	r3,32(sp)
    140c:	00014580 	call	1458 <__cxa_throw>
    1410:	00014e80 	call	14e8 <__cxa_rethrow>

00001414 <_ZL23__gxx_exception_cleanup19_Unwind_Reason_CodeP17_Unwind_Exception>:
    1414:	defffe04 	addi	sp,sp,-8
    1418:	dfc00115 	stw	ra,4(sp)
    141c:	dc000015 	stw	r16,0(sp)
    1420:	00800044 	movi	r2,1
    1424:	11000a36 	bltu	r2,r4,1450 <_ZL23__gxx_exception_cleanup19_Unwind_Reason_CodeP17_Unwind_Exception+0x3c>
    1428:	28bff617 	ldw	r2,-40(r5)
    142c:	2c000504 	addi	r16,r5,20
    1430:	10000226 	beq	r2,zero,143c <_ZL23__gxx_exception_cleanup19_Unwind_Reason_CodeP17_Unwind_Exception+0x28>
    1434:	8009883a 	mov	r4,r16
    1438:	103ee83a 	callr	r2
    143c:	8009883a 	mov	r4,r16
    1440:	dfc00117 	ldw	ra,4(sp)
    1444:	dc000017 	ldw	r16,0(sp)
    1448:	dec00204 	addi	sp,sp,8
    144c:	0001a041 	jmpi	1a04 <__cxa_free_exception>
    1450:	293ff817 	ldw	r4,-32(r5)
    1454:	00016fc0 	call	16fc <_ZN10__cxxabiv111__terminateEPFvvE>

00001458 <__cxa_throw>:
    1458:	defffb04 	addi	sp,sp,-20
    145c:	dfc00415 	stw	ra,16(sp)
    1460:	dcc00315 	stw	r19,12(sp)
    1464:	dc800215 	stw	r18,8(sp)
    1468:	2827883a 	mov	r19,r5
    146c:	3025883a 	mov	r18,r6
    1470:	dc400115 	stw	r17,4(sp)
    1474:	dc000015 	stw	r16,0(sp)
    1478:	2021883a 	mov	r16,r4
    147c:	0001b6c0 	call	1b6c <__cxa_get_globals>
    1480:	10c00117 	ldw	r3,4(r2)
    1484:	847ffb04 	addi	r17,r16,-20
    1488:	18c00044 	addi	r3,r3,1
    148c:	10c00115 	stw	r3,4(r2)
    1490:	00800044 	movi	r2,1
    1494:	80bfef15 	stw	r2,-68(r16)
    1498:	84fff015 	stw	r19,-64(r16)
    149c:	84bff115 	stw	r18,-60(r16)
    14a0:	00018340 	call	1834 <_ZSt14get_unexpectedv>
    14a4:	80bff215 	stw	r2,-56(r16)
    14a8:	00018100 	call	1810 <_ZSt13get_terminatev>
    14ac:	80bff315 	stw	r2,-52(r16)
    14b0:	0090caf4 	movhi	r2,17195
    14b4:	108ac004 	addi	r2,r2,11008
    14b8:	80bffb15 	stw	r2,-20(r16)
    14bc:	0091d3b4 	movhi	r2,18254
    14c0:	109550c4 	addi	r2,r2,21827
    14c4:	80bffc15 	stw	r2,-16(r16)
    14c8:	00800034 	movhi	r2,0
    14cc:	10850504 	addi	r2,r2,5140
    14d0:	8809883a 	mov	r4,r17
    14d4:	80bffd15 	stw	r2,-12(r16)
    14d8:	00024cc0 	call	24cc <_Unwind_SjLj_RaiseException>
    14dc:	8809883a 	mov	r4,r17
    14e0:	00015740 	call	1574 <__cxa_begin_catch>
    14e4:	00017bc0 	call	17bc <_ZSt9terminatev>

000014e8 <__cxa_rethrow>:
    14e8:	defffe04 	addi	sp,sp,-8
    14ec:	dfc00115 	stw	ra,4(sp)
    14f0:	dc000015 	stw	r16,0(sp)
    14f4:	0001b6c0 	call	1b6c <__cxa_get_globals>
    14f8:	10c00117 	ldw	r3,4(r2)
    14fc:	11000017 	ldw	r4,0(r2)
    1500:	18c00044 	addi	r3,r3,1
    1504:	10c00115 	stw	r3,4(r2)
    1508:	20001126 	beq	r4,zero,1550 <__cxa_rethrow+0x68>
    150c:	21400b17 	ldw	r5,44(r4)
    1510:	01ef3574 	movhi	r7,48341
    1514:	39f54004 	addi	r7,r7,-11008
    1518:	29cf883a 	add	r7,r5,r7
    151c:	20c00c17 	ldw	r3,48(r4)
    1520:	394d803a 	cmpltu	r6,r7,r5
    1524:	016e2cb4 	movhi	r5,47282
    1528:	296aaf04 	addi	r5,r5,-21828
    152c:	1947883a 	add	r3,r3,r5
    1530:	30c7883a 	add	r3,r6,r3
    1534:	18000726 	beq	r3,zero,1554 <__cxa_rethrow+0x6c>
    1538:	10000015 	stw	zero,0(r2)
    153c:	24000b04 	addi	r16,r4,44
    1540:	8009883a 	mov	r4,r16
    1544:	00026240 	call	2624 <_Unwind_SjLj_Resume_or_Rethrow>
    1548:	8009883a 	mov	r4,r16
    154c:	00015740 	call	1574 <__cxa_begin_catch>
    1550:	00017bc0 	call	17bc <_ZSt9terminatev>
    1554:	00c00044 	movi	r3,1
    1558:	19fff736 	bltu	r3,r7,1538 <__alt_mem_VGA_Subsystem_Char_Buf_Subsystem_Onchip_SRAM+0xf7001538>
    155c:	20800517 	ldw	r2,20(r4)
    1560:	0085c83a 	sub	r2,zero,r2
    1564:	20800515 	stw	r2,20(r4)
    1568:	003ff406 	br	153c <__alt_mem_VGA_Subsystem_Char_Buf_Subsystem_Onchip_SRAM+0xf700153c>

0000156c <__cxa_get_exception_ptr>:
    156c:	20bfff17 	ldw	r2,-4(r4)
    1570:	f800283a 	ret

00001574 <__cxa_begin_catch>:
    1574:	defffe04 	addi	sp,sp,-8
    1578:	dc000015 	stw	r16,0(sp)
    157c:	dfc00115 	stw	ra,4(sp)
    1580:	2021883a 	mov	r16,r4
    1584:	0001b6c0 	call	1b6c <__cxa_get_globals>
    1588:	81000017 	ldw	r4,0(r16)
    158c:	80c00117 	ldw	r3,4(r16)
    1590:	01af3574 	movhi	r6,48341
    1594:	31b54004 	addi	r6,r6,-11008
    1598:	016e2cb4 	movhi	r5,47282
    159c:	296aaf04 	addi	r5,r5,-21828
    15a0:	218d883a 	add	r6,r4,r6
    15a4:	3109803a 	cmpltu	r4,r6,r4
    15a8:	1947883a 	add	r3,r3,r5
    15ac:	20c7883a 	add	r3,r4,r3
    15b0:	817ff504 	addi	r5,r16,-44
    15b4:	11000017 	ldw	r4,0(r2)
    15b8:	18000726 	beq	r3,zero,15d8 <__cxa_begin_catch+0x64>
    15bc:	2000191e 	bne	r4,zero,1624 <__cxa_begin_catch+0xb0>
    15c0:	11400015 	stw	r5,0(r2)
    15c4:	0005883a 	mov	r2,zero
    15c8:	dfc00117 	ldw	ra,4(sp)
    15cc:	dc000017 	ldw	r16,0(sp)
    15d0:	dec00204 	addi	sp,sp,8
    15d4:	f800283a 	ret
    15d8:	01c00044 	movi	r7,1
    15dc:	39bff736 	bltu	r7,r6,15bc <__alt_mem_VGA_Subsystem_Char_Buf_Subsystem_Onchip_SRAM+0xf70015bc>
    15e0:	80fffa17 	ldw	r3,-24(r16)
    15e4:	18000d16 	blt	r3,zero,161c <__cxa_begin_catch+0xa8>
    15e8:	18c00044 	addi	r3,r3,1
    15ec:	11800117 	ldw	r6,4(r2)
    15f0:	80fffa15 	stw	r3,-24(r16)
    15f4:	30ffffc4 	addi	r3,r6,-1
    15f8:	10c00115 	stw	r3,4(r2)
    15fc:	21400226 	beq	r4,r5,1608 <__cxa_begin_catch+0x94>
    1600:	813ff915 	stw	r4,-28(r16)
    1604:	11400015 	stw	r5,0(r2)
    1608:	80bfff17 	ldw	r2,-4(r16)
    160c:	dfc00117 	ldw	ra,4(sp)
    1610:	dc000017 	ldw	r16,0(sp)
    1614:	dec00204 	addi	sp,sp,8
    1618:	f800283a 	ret
    161c:	38c7c83a 	sub	r3,r7,r3
    1620:	003ff206 	br	15ec <__alt_mem_VGA_Subsystem_Char_Buf_Subsystem_Onchip_SRAM+0xf70015ec>
    1624:	00017bc0 	call	17bc <_ZSt9terminatev>

00001628 <__cxa_end_catch>:
    1628:	deffff04 	addi	sp,sp,-4
    162c:	dfc00015 	stw	ra,0(sp)
    1630:	0001b600 	call	1b60 <__cxa_get_globals_fast>
    1634:	11000017 	ldw	r4,0(r2)
    1638:	20001426 	beq	r4,zero,168c <__cxa_end_catch+0x64>
    163c:	21400b17 	ldw	r5,44(r4)
    1640:	01ef3574 	movhi	r7,48341
    1644:	39f54004 	addi	r7,r7,-11008
    1648:	29cf883a 	add	r7,r5,r7
    164c:	20c00c17 	ldw	r3,48(r4)
    1650:	394d803a 	cmpltu	r6,r7,r5
    1654:	016e2cb4 	movhi	r5,47282
    1658:	296aaf04 	addi	r5,r5,-21828
    165c:	1947883a 	add	r3,r3,r5
    1660:	30c7883a 	add	r3,r6,r3
    1664:	18000c1e 	bne	r3,zero,1698 <__cxa_end_catch+0x70>
    1668:	00c00044 	movi	r3,1
    166c:	19c00a36 	bltu	r3,r7,1698 <__cxa_end_catch+0x70>
    1670:	20c00517 	ldw	r3,20(r4)
    1674:	18000d16 	blt	r3,zero,16ac <__cxa_end_catch+0x84>
    1678:	18ffffc4 	addi	r3,r3,-1
    167c:	18001026 	beq	r3,zero,16c0 <__cxa_end_catch+0x98>
    1680:	00bfffc4 	movi	r2,-1
    1684:	18801426 	beq	r3,r2,16d8 <__cxa_end_catch+0xb0>
    1688:	20c00515 	stw	r3,20(r4)
    168c:	dfc00017 	ldw	ra,0(sp)
    1690:	dec00104 	addi	sp,sp,4
    1694:	f800283a 	ret
    1698:	21000b04 	addi	r4,r4,44
    169c:	10000015 	stw	zero,0(r2)
    16a0:	dfc00017 	ldw	ra,0(sp)
    16a4:	dec00104 	addi	sp,sp,4
    16a8:	00026701 	jmpi	2670 <_Unwind_DeleteException>
    16ac:	18c00044 	addi	r3,r3,1
    16b0:	183ff51e 	bne	r3,zero,1688 <__alt_mem_VGA_Subsystem_Char_Buf_Subsystem_Onchip_SRAM+0xf7001688>
    16b4:	21400417 	ldw	r5,16(r4)
    16b8:	11400015 	stw	r5,0(r2)
    16bc:	003ff206 	br	1688 <__alt_mem_VGA_Subsystem_Char_Buf_Subsystem_Onchip_SRAM+0xf7001688>
    16c0:	20c00417 	ldw	r3,16(r4)
    16c4:	21000b04 	addi	r4,r4,44
    16c8:	10c00015 	stw	r3,0(r2)
    16cc:	dfc00017 	ldw	ra,0(sp)
    16d0:	dec00104 	addi	sp,sp,4
    16d4:	00026701 	jmpi	2670 <_Unwind_DeleteException>
    16d8:	00017bc0 	call	17bc <_ZSt9terminatev>

000016dc <_ZSt18uncaught_exceptionv>:
    16dc:	deffff04 	addi	sp,sp,-4
    16e0:	dfc00015 	stw	ra,0(sp)
    16e4:	0001b6c0 	call	1b6c <__cxa_get_globals>
    16e8:	10800117 	ldw	r2,4(r2)
    16ec:	1004c03a 	cmpne	r2,r2,zero
    16f0:	dfc00017 	ldw	ra,0(sp)
    16f4:	dec00104 	addi	sp,sp,4
    16f8:	f800283a 	ret

000016fc <_ZN10__cxxabiv111__terminateEPFvvE>:
    16fc:	00800034 	movhi	r2,0
    1700:	deffef04 	addi	sp,sp,-68
    1704:	1082f904 	addi	r2,r2,3044
    1708:	d8800615 	stw	r2,24(sp)
    170c:	008000b4 	movhi	r2,2
    1710:	10b09704 	addi	r2,r2,-15780
    1714:	d8800715 	stw	r2,28(sp)
    1718:	00800034 	movhi	r2,0
    171c:	1085d504 	addi	r2,r2,5972
    1720:	d9000d15 	stw	r4,52(sp)
    1724:	d809883a 	mov	r4,sp
    1728:	d8800915 	stw	r2,36(sp)
    172c:	dfc01015 	stw	ra,64(sp)
    1730:	df000f15 	stw	fp,60(sp)
    1734:	dec00815 	stw	sp,32(sp)
    1738:	dec00a15 	stw	sp,40(sp)
    173c:	00023e40 	call	23e4 <_Unwind_SjLj_Register>
    1740:	00800044 	movi	r2,1
    1744:	d8800115 	stw	r2,4(sp)
    1748:	d8800d17 	ldw	r2,52(sp)
    174c:	103ee83a 	callr	r2
    1750:	00026fc0 	call	26fc <abort>
    1754:	d8c00217 	ldw	r3,8(sp)
    1758:	d8800117 	ldw	r2,4(sp)
    175c:	d8c00d15 	stw	r3,52(sp)
    1760:	d8c00317 	ldw	r3,12(sp)
    1764:	d8c00e15 	stw	r3,56(sp)
    1768:	10000b26 	beq	r2,zero,1798 <_ZN10__cxxabiv111__terminateEPFvvE+0x9c>
    176c:	10bfffc4 	addi	r2,r2,-1
    1770:	10000126 	beq	r2,zero,1778 <_ZN10__cxxabiv111__terminateEPFvvE+0x7c>
    1774:	003b68fa 	trap	3
    1778:	d8000115 	stw	zero,4(sp)
    177c:	00016280 	call	1628 <__cxa_end_catch>
    1780:	d8c00e17 	ldw	r3,56(sp)
    1784:	00bfffc4 	movi	r2,-1
    1788:	18800826 	beq	r3,r2,17ac <_ZN10__cxxabiv111__terminateEPFvvE+0xb0>
    178c:	d9000d17 	ldw	r4,52(sp)
    1790:	d8800115 	stw	r2,4(sp)
    1794:	00025e00 	call	25e0 <_Unwind_SjLj_Resume>
    1798:	d9000d17 	ldw	r4,52(sp)
    179c:	00015740 	call	1574 <__cxa_begin_catch>
    17a0:	00800084 	movi	r2,2
    17a4:	d8800115 	stw	r2,4(sp)
    17a8:	00026fc0 	call	26fc <abort>
    17ac:	d8800e17 	ldw	r2,56(sp)
    17b0:	d9000d17 	ldw	r4,52(sp)
    17b4:	d8800115 	stw	r2,4(sp)
    17b8:	00011e40 	call	11e4 <__cxa_call_unexpected>

000017bc <_ZSt9terminatev>:
    17bc:	008000b4 	movhi	r2,2
    17c0:	10bacc04 	addi	r2,r2,-5328
    17c4:	11000017 	ldw	r4,0(r2)
    17c8:	deffff04 	addi	sp,sp,-4
    17cc:	dfc00015 	stw	ra,0(sp)
    17d0:	00016fc0 	call	16fc <_ZN10__cxxabiv111__terminateEPFvvE>

000017d4 <_ZN10__cxxabiv112__unexpectedEPFvvE>:
    17d4:	deffff04 	addi	sp,sp,-4
    17d8:	dfc00015 	stw	ra,0(sp)
    17dc:	203ee83a 	callr	r4
    17e0:	00017bc0 	call	17bc <_ZSt9terminatev>

000017e4 <_ZSt10unexpectedv>:
    17e4:	008000b4 	movhi	r2,2
    17e8:	10bac504 	addi	r2,r2,-5356
    17ec:	11000017 	ldw	r4,0(r2)
    17f0:	deffff04 	addi	sp,sp,-4
    17f4:	dfc00015 	stw	ra,0(sp)
    17f8:	00017d40 	call	17d4 <_ZN10__cxxabiv112__unexpectedEPFvvE>

000017fc <_ZSt13set_terminatePFvvE>:
    17fc:	00c000b4 	movhi	r3,2
    1800:	18facc04 	addi	r3,r3,-5328
    1804:	18800017 	ldw	r2,0(r3)
    1808:	19000015 	stw	r4,0(r3)
    180c:	f800283a 	ret

00001810 <_ZSt13get_terminatev>:
    1810:	008000b4 	movhi	r2,2
    1814:	10bacc04 	addi	r2,r2,-5328
    1818:	10800017 	ldw	r2,0(r2)
    181c:	f800283a 	ret

00001820 <_ZSt14set_unexpectedPFvvE>:
    1820:	00c000b4 	movhi	r3,2
    1824:	18fac504 	addi	r3,r3,-5356
    1828:	18800017 	ldw	r2,0(r3)
    182c:	19000015 	stw	r4,0(r3)
    1830:	f800283a 	ret

00001834 <_ZSt14get_unexpectedv>:
    1834:	008000b4 	movhi	r2,2
    1838:	10bac504 	addi	r2,r2,-5356
    183c:	10800017 	ldw	r2,0(r2)
    1840:	f800283a 	ret

00001844 <_ZN12_GLOBAL__N_14pool4freeEPv.constprop.4>:
    1844:	018000b4 	movhi	r6,2
    1848:	31827c04 	addi	r6,r6,2544
    184c:	31400117 	ldw	r5,4(r6)
    1850:	223fff04 	addi	r8,r4,-4
    1854:	227fff17 	ldw	r9,-4(r4)
    1858:	28001326 	beq	r5,zero,18a8 <_ZN12_GLOBAL__N_14pool4freeEPv.constprop.4+0x64>
    185c:	424f883a 	add	r7,r8,r9
    1860:	29c01426 	beq	r5,r7,18b4 <_ZN12_GLOBAL__N_14pool4freeEPv.constprop.4+0x70>
    1864:	28c00117 	ldw	r3,4(r5)
    1868:	18001c26 	beq	r3,zero,18dc <_ZN12_GLOBAL__N_14pool4freeEPv.constprop.4+0x98>
    186c:	38c00336 	bltu	r7,r3,187c <_ZN12_GLOBAL__N_14pool4freeEPv.constprop.4+0x38>
    1870:	00001e06 	br	18ec <_ZN12_GLOBAL__N_14pool4freeEPv.constprop.4+0xa8>
    1874:	3880052e 	bgeu	r7,r2,188c <_ZN12_GLOBAL__N_14pool4freeEPv.constprop.4+0x48>
    1878:	1007883a 	mov	r3,r2
    187c:	18800117 	ldw	r2,4(r3)
    1880:	29800104 	addi	r6,r5,4
    1884:	180b883a 	mov	r5,r3
    1888:	103ffa1e 	bne	r2,zero,1874 <__alt_mem_VGA_Subsystem_Char_Buf_Subsystem_Onchip_SRAM+0xf7001874>
    188c:	19400017 	ldw	r5,0(r3)
    1890:	194f883a 	add	r7,r3,r5
    1894:	41c00e26 	beq	r8,r7,18d0 <_ZN12_GLOBAL__N_14pool4freeEPv.constprop.4+0x8c>
    1898:	20800015 	stw	r2,0(r4)
    189c:	30800017 	ldw	r2,0(r6)
    18a0:	12000115 	stw	r8,4(r2)
    18a4:	f800283a 	ret
    18a8:	20000015 	stw	zero,0(r4)
    18ac:	32000115 	stw	r8,4(r6)
    18b0:	f800283a 	ret
    18b4:	28c00017 	ldw	r3,0(r5)
    18b8:	28800117 	ldw	r2,4(r5)
    18bc:	1a53883a 	add	r9,r3,r9
    18c0:	227fff15 	stw	r9,-4(r4)
    18c4:	20800015 	stw	r2,0(r4)
    18c8:	32000115 	stw	r8,4(r6)
    18cc:	f800283a 	ret
    18d0:	494b883a 	add	r5,r9,r5
    18d4:	19400015 	stw	r5,0(r3)
    18d8:	f800283a 	ret
    18dc:	0005883a 	mov	r2,zero
    18e0:	2807883a 	mov	r3,r5
    18e4:	31800104 	addi	r6,r6,4
    18e8:	003fe806 	br	188c <__alt_mem_VGA_Subsystem_Char_Buf_Subsystem_Onchip_SRAM+0xf700188c>
    18ec:	1805883a 	mov	r2,r3
    18f0:	31800104 	addi	r6,r6,4
    18f4:	2807883a 	mov	r3,r5
    18f8:	003fe406 	br	188c <__alt_mem_VGA_Subsystem_Char_Buf_Subsystem_Onchip_SRAM+0xf700188c>

000018fc <_ZN12_GLOBAL__N_14pool8allocateEj.constprop.5>:
    18fc:	20800104 	addi	r2,r4,4
    1900:	00c001c4 	movi	r3,7
    1904:	1880112e 	bgeu	r3,r2,194c <_ZN12_GLOBAL__N_14pool8allocateEj.constprop.5+0x50>
    1908:	20c9883a 	add	r4,r4,r3
    190c:	00bfff04 	movi	r2,-4
    1910:	208a703a 	and	r5,r4,r2
    1914:	018000b4 	movhi	r6,2
    1918:	31827c04 	addi	r6,r6,2544
    191c:	30c00117 	ldw	r3,4(r6)
    1920:	18000826 	beq	r3,zero,1944 <_ZN12_GLOBAL__N_14pool8allocateEj.constprop.5+0x48>
    1924:	19000017 	ldw	r4,0(r3)
    1928:	21400436 	bltu	r4,r5,193c <_ZN12_GLOBAL__N_14pool8allocateEj.constprop.5+0x40>
    192c:	00001a06 	br	1998 <_ZN12_GLOBAL__N_14pool8allocateEj.constprop.5+0x9c>
    1930:	11000017 	ldw	r4,0(r2)
    1934:	2140072e 	bgeu	r4,r5,1954 <_ZN12_GLOBAL__N_14pool8allocateEj.constprop.5+0x58>
    1938:	1007883a 	mov	r3,r2
    193c:	18800117 	ldw	r2,4(r3)
    1940:	103ffb1e 	bne	r2,zero,1930 <__alt_mem_VGA_Subsystem_Char_Buf_Subsystem_Onchip_SRAM+0xf7001930>
    1944:	0005883a 	mov	r2,zero
    1948:	f800283a 	ret
    194c:	01400204 	movi	r5,8
    1950:	003ff006 	br	1914 <__alt_mem_VGA_Subsystem_Char_Buf_Subsystem_Onchip_SRAM+0xf7001914>
    1954:	18c00104 	addi	r3,r3,4
    1958:	2149c83a 	sub	r4,r4,r5
    195c:	018001c4 	movi	r6,7
    1960:	3100092e 	bgeu	r6,r4,1988 <_ZN12_GLOBAL__N_14pool8allocateEj.constprop.5+0x8c>
    1964:	11c00117 	ldw	r7,4(r2)
    1968:	114d883a 	add	r6,r2,r5
    196c:	31000015 	stw	r4,0(r6)
    1970:	31c00115 	stw	r7,4(r6)
    1974:	18800017 	ldw	r2,0(r3)
    1978:	11400015 	stw	r5,0(r2)
    197c:	19800015 	stw	r6,0(r3)
    1980:	10800104 	addi	r2,r2,4
    1984:	f800283a 	ret
    1988:	11000117 	ldw	r4,4(r2)
    198c:	10800104 	addi	r2,r2,4
    1990:	19000015 	stw	r4,0(r3)
    1994:	f800283a 	ret
    1998:	1805883a 	mov	r2,r3
    199c:	30c00104 	addi	r3,r6,4
    19a0:	003fed06 	br	1958 <__alt_mem_VGA_Subsystem_Char_Buf_Subsystem_Onchip_SRAM+0xf7001958>

000019a4 <__cxa_allocate_exception>:
    19a4:	defffd04 	addi	sp,sp,-12
    19a8:	dc400115 	stw	r17,4(sp)
    19ac:	24401104 	addi	r17,r4,68
    19b0:	8809883a 	mov	r4,r17
    19b4:	dc000015 	stw	r16,0(sp)
    19b8:	dfc00215 	stw	ra,8(sp)
    19bc:	00027140 	call	2714 <malloc>
    19c0:	1021883a 	mov	r16,r2
    19c4:	10000a26 	beq	r2,zero,19f0 <__cxa_allocate_exception+0x4c>
    19c8:	01801104 	movi	r6,68
    19cc:	000b883a 	mov	r5,zero
    19d0:	8009883a 	mov	r4,r16
    19d4:	0002f480 	call	2f48 <memset>
    19d8:	80801104 	addi	r2,r16,68
    19dc:	dfc00217 	ldw	ra,8(sp)
    19e0:	dc400117 	ldw	r17,4(sp)
    19e4:	dc000017 	ldw	r16,0(sp)
    19e8:	dec00304 	addi	sp,sp,12
    19ec:	f800283a 	ret
    19f0:	8809883a 	mov	r4,r17
    19f4:	00018fc0 	call	18fc <_ZN12_GLOBAL__N_14pool8allocateEj.constprop.5>
    19f8:	1021883a 	mov	r16,r2
    19fc:	103ff21e 	bne	r2,zero,19c8 <__alt_mem_VGA_Subsystem_Char_Buf_Subsystem_Onchip_SRAM+0xf70019c8>
    1a00:	00017bc0 	call	17bc <_ZSt9terminatev>

00001a04 <__cxa_free_exception>:
    1a04:	00c000b4 	movhi	r3,2
    1a08:	18c27c04 	addi	r3,r3,2544
    1a0c:	18800217 	ldw	r2,8(r3)
    1a10:	213fef04 	addi	r4,r4,-68
    1a14:	1100042e 	bgeu	r2,r4,1a28 <__cxa_free_exception+0x24>
    1a18:	18c00317 	ldw	r3,12(r3)
    1a1c:	10c5883a 	add	r2,r2,r3
    1a20:	2080012e 	bgeu	r4,r2,1a28 <__cxa_free_exception+0x24>
    1a24:	00018441 	jmpi	1844 <_ZN12_GLOBAL__N_14pool4freeEPv.constprop.4>
    1a28:	00027281 	jmpi	2728 <free>

00001a2c <__cxa_allocate_dependent_exception>:
    1a2c:	defffe04 	addi	sp,sp,-8
    1a30:	01001004 	movi	r4,64
    1a34:	dc000015 	stw	r16,0(sp)
    1a38:	dfc00115 	stw	ra,4(sp)
    1a3c:	00027140 	call	2714 <malloc>
    1a40:	1021883a 	mov	r16,r2
    1a44:	10000926 	beq	r2,zero,1a6c <__cxa_allocate_dependent_exception+0x40>
    1a48:	01801004 	movi	r6,64
    1a4c:	000b883a 	mov	r5,zero
    1a50:	8009883a 	mov	r4,r16
    1a54:	0002f480 	call	2f48 <memset>
    1a58:	8005883a 	mov	r2,r16
    1a5c:	dfc00117 	ldw	ra,4(sp)
    1a60:	dc000017 	ldw	r16,0(sp)
    1a64:	dec00204 	addi	sp,sp,8
    1a68:	f800283a 	ret
    1a6c:	01001004 	movi	r4,64
    1a70:	00018fc0 	call	18fc <_ZN12_GLOBAL__N_14pool8allocateEj.constprop.5>
    1a74:	1021883a 	mov	r16,r2
    1a78:	103ff31e 	bne	r2,zero,1a48 <__alt_mem_VGA_Subsystem_Char_Buf_Subsystem_Onchip_SRAM+0xf7001a48>
    1a7c:	00017bc0 	call	17bc <_ZSt9terminatev>

00001a80 <__cxa_free_dependent_exception>:
    1a80:	014000b4 	movhi	r5,2
    1a84:	29427c04 	addi	r5,r5,2544
    1a88:	28c00217 	ldw	r3,8(r5)
    1a8c:	2005883a 	mov	r2,r4
    1a90:	1900042e 	bgeu	r3,r4,1aa4 <__cxa_free_dependent_exception+0x24>
    1a94:	29400317 	ldw	r5,12(r5)
    1a98:	1947883a 	add	r3,r3,r5
    1a9c:	20c0012e 	bgeu	r4,r3,1aa4 <__cxa_free_dependent_exception+0x24>
    1aa0:	00018441 	jmpi	1844 <_ZN12_GLOBAL__N_14pool4freeEPv.constprop.4>
    1aa4:	1009883a 	mov	r4,r2
    1aa8:	00027281 	jmpi	2728 <free>

00001aac <_GLOBAL__sub_I___cxa_allocate_exception>:
    1aac:	defffd04 	addi	sp,sp,-12
    1ab0:	dc400115 	stw	r17,4(sp)
    1ab4:	dc000015 	stw	r16,0(sp)
    1ab8:	04424004 	movi	r17,2304
    1abc:	040000b4 	movhi	r16,2
    1ac0:	84027c04 	addi	r16,r16,2544
    1ac4:	8809883a 	mov	r4,r17
    1ac8:	dfc00215 	stw	ra,8(sp)
    1acc:	84400315 	stw	r17,12(r16)
    1ad0:	00027140 	call	2714 <malloc>
    1ad4:	80800215 	stw	r2,8(r16)
    1ad8:	10000826 	beq	r2,zero,1afc <_GLOBAL__sub_I___cxa_allocate_exception+0x50>
    1adc:	80800115 	stw	r2,4(r16)
    1ae0:	14400015 	stw	r17,0(r2)
    1ae4:	10000115 	stw	zero,4(r2)
    1ae8:	dfc00217 	ldw	ra,8(sp)
    1aec:	dc400117 	ldw	r17,4(sp)
    1af0:	dc000017 	ldw	r16,0(sp)
    1af4:	dec00304 	addi	sp,sp,12
    1af8:	f800283a 	ret
    1afc:	80000315 	stw	zero,12(r16)
    1b00:	80000115 	stw	zero,4(r16)
    1b04:	003ff806 	br	1ae8 <__alt_mem_VGA_Subsystem_Char_Buf_Subsystem_Onchip_SRAM+0xf7001ae8>

00001b08 <__cxa_call_terminate>:
    1b08:	defffe04 	addi	sp,sp,-8
    1b0c:	dfc00115 	stw	ra,4(sp)
    1b10:	dc000015 	stw	r16,0(sp)
    1b14:	20000d26 	beq	r4,zero,1b4c <__cxa_call_terminate+0x44>
    1b18:	2021883a 	mov	r16,r4
    1b1c:	00015740 	call	1574 <__cxa_begin_catch>
    1b20:	80c00017 	ldw	r3,0(r16)
    1b24:	016f3574 	movhi	r5,48341
    1b28:	29754004 	addi	r5,r5,-11008
    1b2c:	194b883a 	add	r5,r3,r5
    1b30:	80800117 	ldw	r2,4(r16)
    1b34:	28c9803a 	cmpltu	r4,r5,r3
    1b38:	00ee2cb4 	movhi	r3,47282
    1b3c:	18eaaf04 	addi	r3,r3,-21828
    1b40:	10c5883a 	add	r2,r2,r3
    1b44:	2085883a 	add	r2,r4,r2
    1b48:	10000126 	beq	r2,zero,1b50 <__cxa_call_terminate+0x48>
    1b4c:	00017bc0 	call	17bc <_ZSt9terminatev>
    1b50:	00800044 	movi	r2,1
    1b54:	117ffd36 	bltu	r2,r5,1b4c <__alt_mem_VGA_Subsystem_Char_Buf_Subsystem_Onchip_SRAM+0xf7001b4c>
    1b58:	813ff817 	ldw	r4,-32(r16)
    1b5c:	00016fc0 	call	16fc <_ZN10__cxxabiv111__terminateEPFvvE>

00001b60 <__cxa_get_globals_fast>:
    1b60:	008000b4 	movhi	r2,2
    1b64:	10826b04 	addi	r2,r2,2476
    1b68:	f800283a 	ret

00001b6c <__cxa_get_globals>:
    1b6c:	008000b4 	movhi	r2,2
    1b70:	10826b04 	addi	r2,r2,2476
    1b74:	f800283a 	ret

00001b78 <_ZNSt9exceptionD1Ev>:
    1b78:	f800283a 	ret

00001b7c <_ZNSt13bad_exceptionD1Ev>:
    1b7c:	f800283a 	ret

00001b80 <_ZNKSt9exception4whatEv>:
    1b80:	008000b4 	movhi	r2,2
    1b84:	10b0b004 	addi	r2,r2,-15680
    1b88:	f800283a 	ret

00001b8c <_ZNKSt13bad_exception4whatEv>:
    1b8c:	008000b4 	movhi	r2,2
    1b90:	10b0b404 	addi	r2,r2,-15664
    1b94:	f800283a 	ret

00001b98 <_ZNSt9exceptionD0Ev>:
    1b98:	0001bb01 	jmpi	1bb0 <_ZdlPv>

00001b9c <_ZNSt13bad_exceptionD0Ev>:
    1b9c:	0001bb01 	jmpi	1bb0 <_ZdlPv>

00001ba0 <_ZN10__cxxabiv115__forced_unwindD1Ev>:
    1ba0:	f800283a 	ret

00001ba4 <_ZN10__cxxabiv115__forced_unwindD0Ev>:
    1ba4:	0001bb01 	jmpi	1bb0 <_ZdlPv>

00001ba8 <_ZN10__cxxabiv119__foreign_exceptionD1Ev>:
    1ba8:	f800283a 	ret

00001bac <_ZN10__cxxabiv119__foreign_exceptionD0Ev>:
    1bac:	0001bb01 	jmpi	1bb0 <_ZdlPv>

00001bb0 <_ZdlPv>:
    1bb0:	00027281 	jmpi	2728 <free>

00001bb4 <__cxa_pure_virtual>:
    1bb4:	014000b4 	movhi	r5,2
    1bb8:	deffff04 	addi	sp,sp,-4
    1bbc:	2970ea04 	addi	r5,r5,-15448
    1bc0:	018006c4 	movi	r6,27
    1bc4:	01000084 	movi	r4,2
    1bc8:	dfc00015 	stw	ra,0(sp)
    1bcc:	00188900 	call	18890 <write>
    1bd0:	00017bc0 	call	17bc <_ZSt9terminatev>

00001bd4 <__cxa_deleted_virtual>:
    1bd4:	014000b4 	movhi	r5,2
    1bd8:	deffff04 	addi	sp,sp,-4
    1bdc:	2970f104 	addi	r5,r5,-15420
    1be0:	01800784 	movi	r6,30
    1be4:	01000084 	movi	r4,2
    1be8:	dfc00015 	stw	ra,0(sp)
    1bec:	00188900 	call	18890 <write>
    1bf0:	00017bc0 	call	17bc <_ZSt9terminatev>

00001bf4 <_ZNK10__cxxabiv117__class_type_info11__do_upcastEPKS0_PPv>:
    1bf4:	20800017 	ldw	r2,0(r4)
    1bf8:	defffa04 	addi	sp,sp,-24
    1bfc:	dc000415 	stw	r16,16(sp)
    1c00:	10800617 	ldw	r2,24(r2)
    1c04:	3021883a 	mov	r16,r6
    1c08:	31800017 	ldw	r6,0(r6)
    1c0c:	00c00404 	movi	r3,16
    1c10:	d8c00215 	stw	r3,8(sp)
    1c14:	dfc00515 	stw	ra,20(sp)
    1c18:	d8000015 	stw	zero,0(sp)
    1c1c:	d8000115 	stw	zero,4(sp)
    1c20:	d8000315 	stw	zero,12(sp)
    1c24:	d80f883a 	mov	r7,sp
    1c28:	103ee83a 	callr	r2
    1c2c:	d8800117 	ldw	r2,4(sp)
    1c30:	00c00184 	movi	r3,6
    1c34:	1080018c 	andi	r2,r2,6
    1c38:	10c00526 	beq	r2,r3,1c50 <_ZNK10__cxxabiv117__class_type_info11__do_upcastEPKS0_PPv+0x5c>
    1c3c:	0005883a 	mov	r2,zero
    1c40:	dfc00517 	ldw	ra,20(sp)
    1c44:	dc000417 	ldw	r16,16(sp)
    1c48:	dec00604 	addi	sp,sp,24
    1c4c:	f800283a 	ret
    1c50:	d8c00017 	ldw	r3,0(sp)
    1c54:	00800044 	movi	r2,1
    1c58:	80c00015 	stw	r3,0(r16)
    1c5c:	dfc00517 	ldw	ra,20(sp)
    1c60:	dc000417 	ldw	r16,16(sp)
    1c64:	dec00604 	addi	sp,sp,24
    1c68:	f800283a 	ret

00001c6c <_ZNK10__cxxabiv117__class_type_info20__do_find_public_srcEiPKvPKS0_S2_>:
    1c6c:	d8800017 	ldw	r2,0(sp)
    1c70:	11800226 	beq	r2,r6,1c7c <_ZNK10__cxxabiv117__class_type_info20__do_find_public_srcEiPKvPKS0_S2_+0x10>
    1c74:	00800044 	movi	r2,1
    1c78:	f800283a 	ret
    1c7c:	00800184 	movi	r2,6
    1c80:	f800283a 	ret

00001c84 <_ZN10__cxxabiv117__class_type_infoD1Ev>:
    1c84:	008000b4 	movhi	r2,2
    1c88:	10b10704 	addi	r2,r2,-15332
    1c8c:	20800015 	stw	r2,0(r4)
    1c90:	00021801 	jmpi	2180 <_ZNSt9type_infoD1Ev>

00001c94 <_ZN10__cxxabiv117__class_type_infoD0Ev>:
    1c94:	defffe04 	addi	sp,sp,-8
    1c98:	008000b4 	movhi	r2,2
    1c9c:	dc000015 	stw	r16,0(sp)
    1ca0:	dfc00115 	stw	ra,4(sp)
    1ca4:	10b10704 	addi	r2,r2,-15332
    1ca8:	20800015 	stw	r2,0(r4)
    1cac:	2021883a 	mov	r16,r4
    1cb0:	00021800 	call	2180 <_ZNSt9type_infoD1Ev>
    1cb4:	8009883a 	mov	r4,r16
    1cb8:	dfc00117 	ldw	ra,4(sp)
    1cbc:	dc000017 	ldw	r16,0(sp)
    1cc0:	dec00204 	addi	sp,sp,8
    1cc4:	0001bb01 	jmpi	1bb0 <_ZdlPv>

00001cc8 <_ZNK10__cxxabiv117__class_type_info11__do_upcastEPKS0_PKvRNS0_15__upcast_resultE>:
    1cc8:	21000117 	ldw	r4,4(r4)
    1ccc:	29400117 	ldw	r5,4(r5)
    1cd0:	defffd04 	addi	sp,sp,-12
    1cd4:	dc400115 	stw	r17,4(sp)
    1cd8:	dc000015 	stw	r16,0(sp)
    1cdc:	dfc00215 	stw	ra,8(sp)
    1ce0:	3023883a 	mov	r17,r6
    1ce4:	3821883a 	mov	r16,r7
    1ce8:	21400526 	beq	r4,r5,1d00 <_ZNK10__cxxabiv117__class_type_info11__do_upcastEPKS0_PKvRNS0_15__upcast_resultE+0x38>
    1cec:	20c00007 	ldb	r3,0(r4)
    1cf0:	00800a84 	movi	r2,42
    1cf4:	18800d26 	beq	r3,r2,1d2c <_ZNK10__cxxabiv117__class_type_info11__do_upcastEPKS0_PKvRNS0_15__upcast_resultE+0x64>
    1cf8:	00034a00 	call	34a0 <strcmp>
    1cfc:	10000b1e 	bne	r2,zero,1d2c <_ZNK10__cxxabiv117__class_type_info11__do_upcastEPKS0_PKvRNS0_15__upcast_resultE+0x64>
    1d00:	00800204 	movi	r2,8
    1d04:	80800315 	stw	r2,12(r16)
    1d08:	00800184 	movi	r2,6
    1d0c:	80800115 	stw	r2,4(r16)
    1d10:	84400015 	stw	r17,0(r16)
    1d14:	00800044 	movi	r2,1
    1d18:	dfc00217 	ldw	ra,8(sp)
    1d1c:	dc400117 	ldw	r17,4(sp)
    1d20:	dc000017 	ldw	r16,0(sp)
    1d24:	dec00304 	addi	sp,sp,12
    1d28:	f800283a 	ret
    1d2c:	0005883a 	mov	r2,zero
    1d30:	003ff906 	br	1d18 <__alt_mem_VGA_Subsystem_Char_Buf_Subsystem_Onchip_SRAM+0xf7001d18>

00001d34 <_ZNK10__cxxabiv117__class_type_info12__do_dyncastEiNS0_10__sub_kindEPKS0_PKvS3_S5_RNS0_16__dyncast_resultE>:
    1d34:	defffa04 	addi	sp,sp,-24
    1d38:	dc800415 	stw	r18,16(sp)
    1d3c:	d8800817 	ldw	r2,32(sp)
    1d40:	dc800617 	ldw	r18,24(sp)
    1d44:	dc400315 	stw	r17,12(sp)
    1d48:	dc000215 	stw	r16,8(sp)
    1d4c:	dfc00515 	stw	ra,20(sp)
    1d50:	dc400917 	ldw	r17,36(sp)
    1d54:	24000117 	ldw	r16,4(r4)
    1d58:	90801526 	beq	r18,r2,1db0 <_ZNK10__cxxabiv117__class_type_info12__do_dyncastEiNS0_10__sub_kindEPKS0_PKvS3_S5_RNS0_16__dyncast_resultE+0x7c>
    1d5c:	39400117 	ldw	r5,4(r7)
    1d60:	2c000826 	beq	r5,r16,1d84 <_ZNK10__cxxabiv117__class_type_info12__do_dyncastEiNS0_10__sub_kindEPKS0_PKvS3_S5_RNS0_16__dyncast_resultE+0x50>
    1d64:	80c00007 	ldb	r3,0(r16)
    1d68:	00800a84 	movi	r2,42
    1d6c:	18800926 	beq	r3,r2,1d94 <_ZNK10__cxxabiv117__class_type_info12__do_dyncastEiNS0_10__sub_kindEPKS0_PKvS3_S5_RNS0_16__dyncast_resultE+0x60>
    1d70:	8009883a 	mov	r4,r16
    1d74:	d9800115 	stw	r6,4(sp)
    1d78:	00034a00 	call	34a0 <strcmp>
    1d7c:	d9800117 	ldw	r6,4(sp)
    1d80:	1000041e 	bne	r2,zero,1d94 <_ZNK10__cxxabiv117__class_type_info12__do_dyncastEiNS0_10__sub_kindEPKS0_PKvS3_S5_RNS0_16__dyncast_resultE+0x60>
    1d84:	00800044 	movi	r2,1
    1d88:	8c800015 	stw	r18,0(r17)
    1d8c:	89800115 	stw	r6,4(r17)
    1d90:	88800315 	stw	r2,12(r17)
    1d94:	0005883a 	mov	r2,zero
    1d98:	dfc00517 	ldw	ra,20(sp)
    1d9c:	dc800417 	ldw	r18,16(sp)
    1da0:	dc400317 	ldw	r17,12(sp)
    1da4:	dc000217 	ldw	r16,8(sp)
    1da8:	dec00604 	addi	sp,sp,24
    1dac:	f800283a 	ret
    1db0:	d8800717 	ldw	r2,28(sp)
    1db4:	11400117 	ldw	r5,4(r2)
    1db8:	81400a26 	beq	r16,r5,1de4 <_ZNK10__cxxabiv117__class_type_info12__do_dyncastEiNS0_10__sub_kindEPKS0_PKvS3_S5_RNS0_16__dyncast_resultE+0xb0>
    1dbc:	80c00007 	ldb	r3,0(r16)
    1dc0:	00800a84 	movi	r2,42
    1dc4:	18800c26 	beq	r3,r2,1df8 <_ZNK10__cxxabiv117__class_type_info12__do_dyncastEiNS0_10__sub_kindEPKS0_PKvS3_S5_RNS0_16__dyncast_resultE+0xc4>
    1dc8:	8009883a 	mov	r4,r16
    1dcc:	d9800115 	stw	r6,4(sp)
    1dd0:	d9c00015 	stw	r7,0(sp)
    1dd4:	00034a00 	call	34a0 <strcmp>
    1dd8:	d9800117 	ldw	r6,4(sp)
    1ddc:	d9c00017 	ldw	r7,0(sp)
    1de0:	1000021e 	bne	r2,zero,1dec <_ZNK10__cxxabiv117__class_type_info12__do_dyncastEiNS0_10__sub_kindEPKS0_PKvS3_S5_RNS0_16__dyncast_resultE+0xb8>
    1de4:	89800215 	stw	r6,8(r17)
    1de8:	003fea06 	br	1d94 <__alt_mem_VGA_Subsystem_Char_Buf_Subsystem_Onchip_SRAM+0xf7001d94>
    1dec:	39400117 	ldw	r5,4(r7)
    1df0:	817fdf1e 	bne	r16,r5,1d70 <__alt_mem_VGA_Subsystem_Char_Buf_Subsystem_Onchip_SRAM+0xf7001d70>
    1df4:	003fe306 	br	1d84 <__alt_mem_VGA_Subsystem_Char_Buf_Subsystem_Onchip_SRAM+0xf7001d84>
    1df8:	38800117 	ldw	r2,4(r7)
    1dfc:	80bfe51e 	bne	r16,r2,1d94 <__alt_mem_VGA_Subsystem_Char_Buf_Subsystem_Onchip_SRAM+0xf7001d94>
    1e00:	003fe006 	br	1d84 <__alt_mem_VGA_Subsystem_Char_Buf_Subsystem_Onchip_SRAM+0xf7001d84>

00001e04 <_ZNK10__cxxabiv117__class_type_info10__do_catchEPKSt9type_infoPPvj>:
    1e04:	20800117 	ldw	r2,4(r4)
    1e08:	28c00117 	ldw	r3,4(r5)
    1e0c:	10c02926 	beq	r2,r3,1eb4 <_ZNK10__cxxabiv117__class_type_info10__do_catchEPKSt9type_infoPPvj+0xb0>
    1e10:	defffb04 	addi	sp,sp,-20
    1e14:	dcc00315 	stw	r19,12(sp)
    1e18:	dc800215 	stw	r18,8(sp)
    1e1c:	dc400115 	stw	r17,4(sp)
    1e20:	dc000015 	stw	r16,0(sp)
    1e24:	dfc00415 	stw	ra,16(sp)
    1e28:	2821883a 	mov	r16,r5
    1e2c:	11400007 	ldb	r5,0(r2)
    1e30:	2025883a 	mov	r18,r4
    1e34:	01000a84 	movi	r4,42
    1e38:	3823883a 	mov	r17,r7
    1e3c:	3027883a 	mov	r19,r6
    1e40:	29000626 	beq	r5,r4,1e5c <_ZNK10__cxxabiv117__class_type_info10__do_catchEPKSt9type_infoPPvj+0x58>
    1e44:	180b883a 	mov	r5,r3
    1e48:	1009883a 	mov	r4,r2
    1e4c:	00034a00 	call	34a0 <strcmp>
    1e50:	1000021e 	bne	r2,zero,1e5c <_ZNK10__cxxabiv117__class_type_info10__do_catchEPKSt9type_infoPPvj+0x58>
    1e54:	00800044 	movi	r2,1
    1e58:	00000306 	br	1e68 <_ZNK10__cxxabiv117__class_type_info10__do_catchEPKSt9type_infoPPvj+0x64>
    1e5c:	008000c4 	movi	r2,3
    1e60:	1440082e 	bgeu	r2,r17,1e84 <_ZNK10__cxxabiv117__class_type_info10__do_catchEPKSt9type_infoPPvj+0x80>
    1e64:	0005883a 	mov	r2,zero
    1e68:	dfc00417 	ldw	ra,16(sp)
    1e6c:	dcc00317 	ldw	r19,12(sp)
    1e70:	dc800217 	ldw	r18,8(sp)
    1e74:	dc400117 	ldw	r17,4(sp)
    1e78:	dc000017 	ldw	r16,0(sp)
    1e7c:	dec00504 	addi	sp,sp,20
    1e80:	f800283a 	ret
    1e84:	80800017 	ldw	r2,0(r16)
    1e88:	980d883a 	mov	r6,r19
    1e8c:	900b883a 	mov	r5,r18
    1e90:	10800517 	ldw	r2,20(r2)
    1e94:	8009883a 	mov	r4,r16
    1e98:	dfc00417 	ldw	ra,16(sp)
    1e9c:	dcc00317 	ldw	r19,12(sp)
    1ea0:	dc800217 	ldw	r18,8(sp)
    1ea4:	dc400117 	ldw	r17,4(sp)
    1ea8:	dc000017 	ldw	r16,0(sp)
    1eac:	dec00504 	addi	sp,sp,20
    1eb0:	1000683a 	jmp	r2
    1eb4:	00800044 	movi	r2,1
    1eb8:	f800283a 	ret

00001ebc <_ZN10__cxxabiv120__si_class_type_infoD1Ev>:
    1ebc:	008000b4 	movhi	r2,2
    1ec0:	10b11f04 	addi	r2,r2,-15236
    1ec4:	20800015 	stw	r2,0(r4)
    1ec8:	0001c841 	jmpi	1c84 <_ZN10__cxxabiv117__class_type_infoD1Ev>

00001ecc <_ZN10__cxxabiv120__si_class_type_infoD0Ev>:
    1ecc:	defffe04 	addi	sp,sp,-8
    1ed0:	008000b4 	movhi	r2,2
    1ed4:	dc000015 	stw	r16,0(sp)
    1ed8:	dfc00115 	stw	ra,4(sp)
    1edc:	10b11f04 	addi	r2,r2,-15236
    1ee0:	20800015 	stw	r2,0(r4)
    1ee4:	2021883a 	mov	r16,r4
    1ee8:	0001c840 	call	1c84 <_ZN10__cxxabiv117__class_type_infoD1Ev>
    1eec:	8009883a 	mov	r4,r16
    1ef0:	dfc00117 	ldw	ra,4(sp)
    1ef4:	dc000017 	ldw	r16,0(sp)
    1ef8:	dec00204 	addi	sp,sp,8
    1efc:	0001bb01 	jmpi	1bb0 <_ZdlPv>

00001f00 <_ZNK10__cxxabiv120__si_class_type_info12__do_dyncastEiNS_17__class_type_info10__sub_kindEPKS1_PKvS4_S6_RNS1_16__dyncast_resultE>:
    1f00:	defff504 	addi	sp,sp,-44
    1f04:	dc000115 	stw	r16,4(sp)
    1f08:	38800117 	ldw	r2,4(r7)
    1f0c:	24000117 	ldw	r16,4(r4)
    1f10:	df000915 	stw	fp,36(sp)
    1f14:	ddc00815 	stw	r23,32(sp)
    1f18:	dd800715 	stw	r22,28(sp)
    1f1c:	dcc00415 	stw	r19,16(sp)
    1f20:	dc800315 	stw	r18,12(sp)
    1f24:	dc400215 	stw	r17,8(sp)
    1f28:	dfc00a15 	stw	ra,40(sp)
    1f2c:	dd400615 	stw	r21,24(sp)
    1f30:	dd000515 	stw	r20,20(sp)
    1f34:	2823883a 	mov	r17,r5
    1f38:	3039883a 	mov	fp,r6
    1f3c:	dcc00b17 	ldw	r19,44(sp)
    1f40:	ddc00c17 	ldw	r23,48(sp)
    1f44:	dd800d17 	ldw	r22,52(sp)
    1f48:	dc800e17 	ldw	r18,56(sp)
    1f4c:	80800b26 	beq	r16,r2,1f7c <_ZNK10__cxxabiv120__si_class_type_info12__do_dyncastEiNS_17__class_type_info10__sub_kindEPKS1_PKvS4_S6_RNS1_16__dyncast_resultE+0x7c>
    1f50:	80c00007 	ldb	r3,0(r16)
    1f54:	2029883a 	mov	r20,r4
    1f58:	01000a84 	movi	r4,42
    1f5c:	382b883a 	mov	r21,r7
    1f60:	19001a26 	beq	r3,r4,1fcc <_ZNK10__cxxabiv120__si_class_type_info12__do_dyncastEiNS_17__class_type_info10__sub_kindEPKS1_PKvS4_S6_RNS1_16__dyncast_resultE+0xcc>
    1f64:	100b883a 	mov	r5,r2
    1f68:	8009883a 	mov	r4,r16
    1f6c:	d8c00015 	stw	r3,0(sp)
    1f70:	00034a00 	call	34a0 <strcmp>
    1f74:	d8c00017 	ldw	r3,0(sp)
    1f78:	1000141e 	bne	r2,zero,1fcc <_ZNK10__cxxabiv120__si_class_type_info12__do_dyncastEiNS_17__class_type_info10__sub_kindEPKS1_PKvS4_S6_RNS1_16__dyncast_resultE+0xcc>
    1f7c:	94c00015 	stw	r19,0(r18)
    1f80:	97000115 	stw	fp,4(r18)
    1f84:	88002816 	blt	r17,zero,2028 <_ZNK10__cxxabiv120__si_class_type_info12__do_dyncastEiNS_17__class_type_info10__sub_kindEPKS1_PKvS4_S6_RNS1_16__dyncast_resultE+0x128>
    1f88:	9c63883a 	add	r17,r19,r17
    1f8c:	b4403226 	beq	r22,r17,2058 <_ZNK10__cxxabiv120__si_class_type_info12__do_dyncastEiNS_17__class_type_info10__sub_kindEPKS1_PKvS4_S6_RNS1_16__dyncast_resultE+0x158>
    1f90:	00800044 	movi	r2,1
    1f94:	90800315 	stw	r2,12(r18)
    1f98:	0005883a 	mov	r2,zero
    1f9c:	dfc00a17 	ldw	ra,40(sp)
    1fa0:	df000917 	ldw	fp,36(sp)
    1fa4:	ddc00817 	ldw	r23,32(sp)
    1fa8:	dd800717 	ldw	r22,28(sp)
    1fac:	dd400617 	ldw	r21,24(sp)
    1fb0:	dd000517 	ldw	r20,20(sp)
    1fb4:	dcc00417 	ldw	r19,16(sp)
    1fb8:	dc800317 	ldw	r18,12(sp)
    1fbc:	dc400217 	ldw	r17,8(sp)
    1fc0:	dc000117 	ldw	r16,4(sp)
    1fc4:	dec00b04 	addi	sp,sp,44
    1fc8:	f800283a 	ret
    1fcc:	9d801926 	beq	r19,r22,2034 <_ZNK10__cxxabiv120__si_class_type_info12__do_dyncastEiNS_17__class_type_info10__sub_kindEPKS1_PKvS4_S6_RNS1_16__dyncast_resultE+0x134>
    1fd0:	a1000217 	ldw	r4,8(r20)
    1fd4:	a80f883a 	mov	r7,r21
    1fd8:	e00d883a 	mov	r6,fp
    1fdc:	20800017 	ldw	r2,0(r4)
    1fe0:	dc800e15 	stw	r18,56(sp)
    1fe4:	dd800d15 	stw	r22,52(sp)
    1fe8:	ddc00c15 	stw	r23,48(sp)
    1fec:	dcc00b15 	stw	r19,44(sp)
    1ff0:	10800717 	ldw	r2,28(r2)
    1ff4:	880b883a 	mov	r5,r17
    1ff8:	dfc00a17 	ldw	ra,40(sp)
    1ffc:	df000917 	ldw	fp,36(sp)
    2000:	ddc00817 	ldw	r23,32(sp)
    2004:	dd800717 	ldw	r22,28(sp)
    2008:	dd400617 	ldw	r21,24(sp)
    200c:	dd000517 	ldw	r20,20(sp)
    2010:	dcc00417 	ldw	r19,16(sp)
    2014:	dc800317 	ldw	r18,12(sp)
    2018:	dc400217 	ldw	r17,8(sp)
    201c:	dc000117 	ldw	r16,4(sp)
    2020:	dec00b04 	addi	sp,sp,44
    2024:	1000683a 	jmp	r2
    2028:	00bfff84 	movi	r2,-2
    202c:	88bfda1e 	bne	r17,r2,1f98 <__alt_mem_VGA_Subsystem_Char_Buf_Subsystem_Onchip_SRAM+0xf7001f98>
    2030:	003fd706 	br	1f90 <__alt_mem_VGA_Subsystem_Char_Buf_Subsystem_Onchip_SRAM+0xf7001f90>
    2034:	b9400117 	ldw	r5,4(r23)
    2038:	81400526 	beq	r16,r5,2050 <_ZNK10__cxxabiv120__si_class_type_info12__do_dyncastEiNS_17__class_type_info10__sub_kindEPKS1_PKvS4_S6_RNS1_16__dyncast_resultE+0x150>
    203c:	00800a84 	movi	r2,42
    2040:	18bfe326 	beq	r3,r2,1fd0 <__alt_mem_VGA_Subsystem_Char_Buf_Subsystem_Onchip_SRAM+0xf7001fd0>
    2044:	8009883a 	mov	r4,r16
    2048:	00034a00 	call	34a0 <strcmp>
    204c:	103fe01e 	bne	r2,zero,1fd0 <__alt_mem_VGA_Subsystem_Char_Buf_Subsystem_Onchip_SRAM+0xf7001fd0>
    2050:	97000215 	stw	fp,8(r18)
    2054:	003fd006 	br	1f98 <__alt_mem_VGA_Subsystem_Char_Buf_Subsystem_Onchip_SRAM+0xf7001f98>
    2058:	00800184 	movi	r2,6
    205c:	003fcd06 	br	1f94 <__alt_mem_VGA_Subsystem_Char_Buf_Subsystem_Onchip_SRAM+0xf7001f94>

00002060 <_ZNK10__cxxabiv120__si_class_type_info20__do_find_public_srcEiPKvPKNS_17__class_type_infoES2_>:
    2060:	defffa04 	addi	sp,sp,-24
    2064:	dc000215 	stw	r16,8(sp)
    2068:	dc000617 	ldw	r16,24(sp)
    206c:	dc800415 	stw	r18,16(sp)
    2070:	dc400315 	stw	r17,12(sp)
    2074:	dfc00515 	stw	ra,20(sp)
    2078:	2023883a 	mov	r17,r4
    207c:	2825883a 	mov	r18,r5
    2080:	81800b26 	beq	r16,r6,20b0 <_ZNK10__cxxabiv120__si_class_type_info20__do_find_public_srcEiPKvPKNS_17__class_type_infoES2_+0x50>
    2084:	89000217 	ldw	r4,8(r17)
    2088:	900b883a 	mov	r5,r18
    208c:	20800017 	ldw	r2,0(r4)
    2090:	dc000615 	stw	r16,24(sp)
    2094:	10800817 	ldw	r2,32(r2)
    2098:	dfc00517 	ldw	ra,20(sp)
    209c:	dc800417 	ldw	r18,16(sp)
    20a0:	dc400317 	ldw	r17,12(sp)
    20a4:	dc000217 	ldw	r16,8(sp)
    20a8:	dec00604 	addi	sp,sp,24
    20ac:	1000683a 	jmp	r2
    20b0:	21000117 	ldw	r4,4(r4)
    20b4:	39400117 	ldw	r5,4(r7)
    20b8:	21400926 	beq	r4,r5,20e0 <_ZNK10__cxxabiv120__si_class_type_info20__do_find_public_srcEiPKvPKNS_17__class_type_infoES2_+0x80>
    20bc:	20c00007 	ldb	r3,0(r4)
    20c0:	00800a84 	movi	r2,42
    20c4:	18bfef26 	beq	r3,r2,2084 <__alt_mem_VGA_Subsystem_Char_Buf_Subsystem_Onchip_SRAM+0xf7002084>
    20c8:	d9800015 	stw	r6,0(sp)
    20cc:	d9c00115 	stw	r7,4(sp)
    20d0:	00034a00 	call	34a0 <strcmp>
    20d4:	d9800017 	ldw	r6,0(sp)
    20d8:	d9c00117 	ldw	r7,4(sp)
    20dc:	103fe91e 	bne	r2,zero,2084 <__alt_mem_VGA_Subsystem_Char_Buf_Subsystem_Onchip_SRAM+0xf7002084>
    20e0:	00800184 	movi	r2,6
    20e4:	dfc00517 	ldw	ra,20(sp)
    20e8:	dc800417 	ldw	r18,16(sp)
    20ec:	dc400317 	ldw	r17,12(sp)
    20f0:	dc000217 	ldw	r16,8(sp)
    20f4:	dec00604 	addi	sp,sp,24
    20f8:	f800283a 	ret

000020fc <_ZNK10__cxxabiv120__si_class_type_info11__do_upcastEPKNS_17__class_type_infoEPKvRNS1_15__upcast_resultE>:
    20fc:	defffb04 	addi	sp,sp,-20
    2100:	dcc00315 	stw	r19,12(sp)
    2104:	dc800215 	stw	r18,8(sp)
    2108:	dc400115 	stw	r17,4(sp)
    210c:	dc000015 	stw	r16,0(sp)
    2110:	dfc00415 	stw	ra,16(sp)
    2114:	2027883a 	mov	r19,r4
    2118:	2821883a 	mov	r16,r5
    211c:	3023883a 	mov	r17,r6
    2120:	3825883a 	mov	r18,r7
    2124:	0001cc80 	call	1cc8 <_ZNK10__cxxabiv117__class_type_info11__do_upcastEPKS0_PKvRNS0_15__upcast_resultE>
    2128:	10c03fcc 	andi	r3,r2,255
    212c:	18000726 	beq	r3,zero,214c <_ZNK10__cxxabiv120__si_class_type_info11__do_upcastEPKNS_17__class_type_infoEPKvRNS1_15__upcast_resultE+0x50>
    2130:	dfc00417 	ldw	ra,16(sp)
    2134:	dcc00317 	ldw	r19,12(sp)
    2138:	dc800217 	ldw	r18,8(sp)
    213c:	dc400117 	ldw	r17,4(sp)
    2140:	dc000017 	ldw	r16,0(sp)
    2144:	dec00504 	addi	sp,sp,20
    2148:	f800283a 	ret
    214c:	99000217 	ldw	r4,8(r19)
    2150:	900f883a 	mov	r7,r18
    2154:	880d883a 	mov	r6,r17
    2158:	20800017 	ldw	r2,0(r4)
    215c:	800b883a 	mov	r5,r16
    2160:	10800617 	ldw	r2,24(r2)
    2164:	dfc00417 	ldw	ra,16(sp)
    2168:	dcc00317 	ldw	r19,12(sp)
    216c:	dc800217 	ldw	r18,8(sp)
    2170:	dc400117 	ldw	r17,4(sp)
    2174:	dc000017 	ldw	r16,0(sp)
    2178:	dec00504 	addi	sp,sp,20
    217c:	1000683a 	jmp	r2

00002180 <_ZNSt9type_infoD1Ev>:
    2180:	f800283a 	ret

00002184 <_ZNKSt9type_info14__is_pointer_pEv>:
    2184:	0005883a 	mov	r2,zero
    2188:	f800283a 	ret

0000218c <_ZNKSt9type_info11__do_upcastEPKN10__cxxabiv117__class_type_infoEPPv>:
    218c:	0005883a 	mov	r2,zero
    2190:	f800283a 	ret

00002194 <_ZNSt9type_infoD0Ev>:
    2194:	0001bb01 	jmpi	1bb0 <_ZdlPv>

00002198 <_ZNKSt9type_info10__do_catchEPKS_PPvj>:
    2198:	21000117 	ldw	r4,4(r4)
    219c:	29400117 	ldw	r5,4(r5)
    21a0:	21400c26 	beq	r4,r5,21d4 <_ZNKSt9type_info10__do_catchEPKS_PPvj+0x3c>
    21a4:	20c00007 	ldb	r3,0(r4)
    21a8:	00800a84 	movi	r2,42
    21ac:	18800726 	beq	r3,r2,21cc <_ZNKSt9type_info10__do_catchEPKS_PPvj+0x34>
    21b0:	deffff04 	addi	sp,sp,-4
    21b4:	dfc00015 	stw	ra,0(sp)
    21b8:	00034a00 	call	34a0 <strcmp>
    21bc:	1005003a 	cmpeq	r2,r2,zero
    21c0:	dfc00017 	ldw	ra,0(sp)
    21c4:	dec00104 	addi	sp,sp,4
    21c8:	f800283a 	ret
    21cc:	0005883a 	mov	r2,zero
    21d0:	f800283a 	ret
    21d4:	00800044 	movi	r2,1
    21d8:	f800283a 	ret

000021dc <_Unwind_ForcedUnwind_Phase2>:
    21dc:	defff404 	addi	sp,sp,-48
    21e0:	dd800915 	stw	r22,36(sp)
    21e4:	058000b4 	movhi	r22,2
    21e8:	ddc00a15 	stw	r23,40(sp)
    21ec:	dd400815 	stw	r21,32(sp)
    21f0:	dd000715 	stw	r20,28(sp)
    21f4:	dcc00615 	stw	r19,24(sp)
    21f8:	dc400415 	stw	r17,16(sp)
    21fc:	dc000315 	stw	r16,12(sp)
    2200:	dfc00b15 	stw	ra,44(sp)
    2204:	dc800515 	stw	r18,20(sp)
    2208:	2021883a 	mov	r16,r4
    220c:	2823883a 	mov	r17,r5
    2210:	24c00317 	ldw	r19,12(r4)
    2214:	25000417 	ldw	r20,16(r4)
    2218:	28c00017 	ldw	r3,0(r5)
    221c:	b5826d04 	addi	r22,r22,2484
    2220:	054001c4 	movi	r21,7
    2224:	05c00204 	movi	r23,8
    2228:	00001606 	br	2284 <_Unwind_ForcedUnwind_Phase2+0xa8>
    222c:	81800017 	ldw	r6,0(r16)
    2230:	81c00117 	ldw	r7,4(r16)
    2234:	1c800617 	ldw	r18,24(r3)
    2238:	dd000215 	stw	r20,8(sp)
    223c:	dc400115 	stw	r17,4(sp)
    2240:	dc000015 	stw	r16,0(sp)
    2244:	983ee83a 	callr	r19
    2248:	01400284 	movi	r5,10
    224c:	01000044 	movi	r4,1
    2250:	1000241e 	bne	r2,zero,22e4 <_Unwind_ForcedUnwind_Phase2+0x108>
    2254:	90000726 	beq	r18,zero,2274 <_Unwind_ForcedUnwind_Phase2+0x98>
    2258:	81800017 	ldw	r6,0(r16)
    225c:	81c00117 	ldw	r7,4(r16)
    2260:	dc400115 	stw	r17,4(sp)
    2264:	dc000015 	stw	r16,0(sp)
    2268:	903ee83a 	callr	r18
    226c:	15401f26 	beq	r2,r21,22ec <_Unwind_ForcedUnwind_Phase2+0x110>
    2270:	15c01c1e 	bne	r2,r23,22e4 <_Unwind_ForcedUnwind_Phase2+0x108>
    2274:	88800017 	ldw	r2,0(r17)
    2278:	10c00017 	ldw	r3,0(r2)
    227c:	b0c00015 	stw	r3,0(r22)
    2280:	88c00015 	stw	r3,0(r17)
    2284:	01400284 	movi	r5,10
    2288:	01000044 	movi	r4,1
    228c:	183fe71e 	bne	r3,zero,222c <__alt_mem_VGA_Subsystem_Char_Buf_Subsystem_Onchip_SRAM+0xf700222c>
    2290:	81800017 	ldw	r6,0(r16)
    2294:	81c00117 	ldw	r7,4(r16)
    2298:	01400684 	movi	r5,26
    229c:	dd000215 	stw	r20,8(sp)
    22a0:	dc400115 	stw	r17,4(sp)
    22a4:	dc000015 	stw	r16,0(sp)
    22a8:	01000044 	movi	r4,1
    22ac:	983ee83a 	callr	r19
    22b0:	10000c1e 	bne	r2,zero,22e4 <_Unwind_ForcedUnwind_Phase2+0x108>
    22b4:	00800144 	movi	r2,5
    22b8:	dfc00b17 	ldw	ra,44(sp)
    22bc:	ddc00a17 	ldw	r23,40(sp)
    22c0:	dd800917 	ldw	r22,36(sp)
    22c4:	dd400817 	ldw	r21,32(sp)
    22c8:	dd000717 	ldw	r20,28(sp)
    22cc:	dcc00617 	ldw	r19,24(sp)
    22d0:	dc800517 	ldw	r18,20(sp)
    22d4:	dc400417 	ldw	r17,16(sp)
    22d8:	dc000317 	ldw	r16,12(sp)
    22dc:	dec00c04 	addi	sp,sp,48
    22e0:	f800283a 	ret
    22e4:	00800084 	movi	r2,2
    22e8:	003ff306 	br	22b8 <__alt_mem_VGA_Subsystem_Char_Buf_Subsystem_Onchip_SRAM+0xf70022b8>
    22ec:	a805883a 	mov	r2,r21
    22f0:	003ff106 	br	22b8 <__alt_mem_VGA_Subsystem_Char_Buf_Subsystem_Onchip_SRAM+0xf70022b8>

000022f4 <_Unwind_RaiseException_Phase2>:
    22f4:	28c00017 	ldw	r3,0(r5)
    22f8:	defff804 	addi	sp,sp,-32
    22fc:	dcc00515 	stw	r19,20(sp)
    2300:	dc800415 	stw	r18,16(sp)
    2304:	dc400315 	stw	r17,12(sp)
    2308:	dc000215 	stw	r16,8(sp)
    230c:	dfc00715 	stw	ra,28(sp)
    2310:	dd000615 	stw	r20,24(sp)
    2314:	2823883a 	mov	r17,r5
    2318:	2021883a 	mov	r16,r4
    231c:	048001c4 	movi	r18,7
    2320:	04c00204 	movi	r19,8
    2324:	18001326 	beq	r3,zero,2374 <_Unwind_RaiseException_Phase2+0x80>
    2328:	81000417 	ldw	r4,16(r16)
    232c:	1a000617 	ldw	r8,24(r3)
    2330:	19001926 	beq	r3,r4,2398 <_Unwind_RaiseException_Phase2+0xa4>
    2334:	40000c26 	beq	r8,zero,2368 <_Unwind_RaiseException_Phase2+0x74>
    2338:	01400084 	movi	r5,2
    233c:	0029883a 	mov	r20,zero
    2340:	81800017 	ldw	r6,0(r16)
    2344:	81c00117 	ldw	r7,4(r16)
    2348:	01000044 	movi	r4,1
    234c:	dc400115 	stw	r17,4(sp)
    2350:	dc000015 	stw	r16,0(sp)
    2354:	403ee83a 	callr	r8
    2358:	14801326 	beq	r2,r18,23a8 <_Unwind_RaiseException_Phase2+0xb4>
    235c:	14c0051e 	bne	r2,r19,2374 <_Unwind_RaiseException_Phase2+0x80>
    2360:	a000131e 	bne	r20,zero,23b0 <_Unwind_RaiseException_Phase2+0xbc>
    2364:	88c00017 	ldw	r3,0(r17)
    2368:	18c00017 	ldw	r3,0(r3)
    236c:	88c00015 	stw	r3,0(r17)
    2370:	183fed1e 	bne	r3,zero,2328 <__alt_mem_VGA_Subsystem_Char_Buf_Subsystem_Onchip_SRAM+0xf7002328>
    2374:	00800084 	movi	r2,2
    2378:	dfc00717 	ldw	ra,28(sp)
    237c:	dd000617 	ldw	r20,24(sp)
    2380:	dcc00517 	ldw	r19,20(sp)
    2384:	dc800417 	ldw	r18,16(sp)
    2388:	dc400317 	ldw	r17,12(sp)
    238c:	dc000217 	ldw	r16,8(sp)
    2390:	dec00804 	addi	sp,sp,32
    2394:	f800283a 	ret
    2398:	40000526 	beq	r8,zero,23b0 <_Unwind_RaiseException_Phase2+0xbc>
    239c:	01400184 	movi	r5,6
    23a0:	05000104 	movi	r20,4
    23a4:	003fe606 	br	2340 <__alt_mem_VGA_Subsystem_Char_Buf_Subsystem_Onchip_SRAM+0xf7002340>
    23a8:	9005883a 	mov	r2,r18
    23ac:	003ff206 	br	2378 <__alt_mem_VGA_Subsystem_Char_Buf_Subsystem_Onchip_SRAM+0xf7002378>
    23b0:	00026fc0 	call	26fc <abort>

000023b4 <uw_install_context.isra.1>:
    23b4:	20c00017 	ldw	r3,0(r4)
    23b8:	deffff04 	addi	sp,sp,-4
    23bc:	014000b4 	movhi	r5,2
    23c0:	19000917 	ldw	r4,36(r3)
    23c4:	df000015 	stw	fp,0(sp)
    23c8:	18800804 	addi	r2,r3,32
    23cc:	d839883a 	mov	fp,sp
    23d0:	29426d04 	addi	r5,r5,2484
    23d4:	28c00015 	stw	r3,0(r5)
    23d8:	17000017 	ldw	fp,0(r2)
    23dc:	1ec00a17 	ldw	sp,40(r3)
    23e0:	2000683a 	jmp	r4

000023e4 <_Unwind_SjLj_Register>:
    23e4:	008000b4 	movhi	r2,2
    23e8:	10826d04 	addi	r2,r2,2484
    23ec:	10c00017 	ldw	r3,0(r2)
    23f0:	11000015 	stw	r4,0(r2)
    23f4:	20c00015 	stw	r3,0(r4)
    23f8:	f800283a 	ret

000023fc <_Unwind_SjLj_Unregister>:
    23fc:	20c00017 	ldw	r3,0(r4)
    2400:	008000b4 	movhi	r2,2
    2404:	10826d04 	addi	r2,r2,2484
    2408:	10c00015 	stw	r3,0(r2)
    240c:	f800283a 	ret

00002410 <_Unwind_GetGR>:
    2410:	20800017 	ldw	r2,0(r4)
    2414:	29400084 	addi	r5,r5,2
    2418:	294b883a 	add	r5,r5,r5
    241c:	294b883a 	add	r5,r5,r5
    2420:	114b883a 	add	r5,r2,r5
    2424:	28800017 	ldw	r2,0(r5)
    2428:	f800283a 	ret

0000242c <_Unwind_GetCFA>:
    242c:	20800017 	ldw	r2,0(r4)
    2430:	10000226 	beq	r2,zero,243c <_Unwind_GetCFA+0x10>
    2434:	10800a17 	ldw	r2,40(r2)
    2438:	f800283a 	ret
    243c:	0005883a 	mov	r2,zero
    2440:	f800283a 	ret

00002444 <_Unwind_SetGR>:
    2444:	20800017 	ldw	r2,0(r4)
    2448:	29400084 	addi	r5,r5,2
    244c:	294b883a 	add	r5,r5,r5
    2450:	294b883a 	add	r5,r5,r5
    2454:	114b883a 	add	r5,r2,r5
    2458:	29800015 	stw	r6,0(r5)
    245c:	f800283a 	ret

00002460 <_Unwind_GetIP>:
    2460:	20800017 	ldw	r2,0(r4)
    2464:	10800117 	ldw	r2,4(r2)
    2468:	10800044 	addi	r2,r2,1
    246c:	f800283a 	ret

00002470 <_Unwind_GetIPInfo>:
    2470:	20800017 	ldw	r2,0(r4)
    2474:	28000015 	stw	zero,0(r5)
    2478:	10000326 	beq	r2,zero,2488 <_Unwind_GetIPInfo+0x18>
    247c:	10800117 	ldw	r2,4(r2)
    2480:	10800044 	addi	r2,r2,1
    2484:	f800283a 	ret
    2488:	0005883a 	mov	r2,zero
    248c:	f800283a 	ret

00002490 <_Unwind_SetIP>:
    2490:	20800017 	ldw	r2,0(r4)
    2494:	297fffc4 	addi	r5,r5,-1
    2498:	11400115 	stw	r5,4(r2)
    249c:	f800283a 	ret

000024a0 <_Unwind_GetLanguageSpecificData>:
    24a0:	20800017 	ldw	r2,0(r4)
    24a4:	10800717 	ldw	r2,28(r2)
    24a8:	f800283a 	ret

000024ac <_Unwind_GetRegionStart>:
    24ac:	0005883a 	mov	r2,zero
    24b0:	f800283a 	ret

000024b4 <_Unwind_FindEnclosingFunction>:
    24b4:	0005883a 	mov	r2,zero
    24b8:	f800283a 	ret

000024bc <_Unwind_GetDataRelBase>:
    24bc:	0005883a 	mov	r2,zero
    24c0:	f800283a 	ret

000024c4 <_Unwind_GetTextRelBase>:
    24c4:	0005883a 	mov	r2,zero
    24c8:	f800283a 	ret

000024cc <_Unwind_SjLj_RaiseException>:
    24cc:	008000b4 	movhi	r2,2
    24d0:	defff804 	addi	sp,sp,-32
    24d4:	10826d04 	addi	r2,r2,2484
    24d8:	dc800515 	stw	r18,20(sp)
    24dc:	14800017 	ldw	r18,0(r2)
    24e0:	dfc00715 	stw	ra,28(sp)
    24e4:	dcc00615 	stw	r19,24(sp)
    24e8:	dc400415 	stw	r17,16(sp)
    24ec:	dc000315 	stw	r16,12(sp)
    24f0:	dc800215 	stw	r18,8(sp)
    24f4:	90001426 	beq	r18,zero,2548 <_Unwind_SjLj_RaiseException+0x7c>
    24f8:	2021883a 	mov	r16,r4
    24fc:	9005883a 	mov	r2,r18
    2500:	04400184 	movi	r17,6
    2504:	04c00204 	movi	r19,8
    2508:	10800617 	ldw	r2,24(r2)
    250c:	10000a26 	beq	r2,zero,2538 <_Unwind_SjLj_RaiseException+0x6c>
    2510:	81800017 	ldw	r6,0(r16)
    2514:	81c00117 	ldw	r7,4(r16)
    2518:	01400044 	movi	r5,1
    251c:	d8c00204 	addi	r3,sp,8
    2520:	d8c00115 	stw	r3,4(sp)
    2524:	dc000015 	stw	r16,0(sp)
    2528:	2809883a 	mov	r4,r5
    252c:	103ee83a 	callr	r2
    2530:	14400d26 	beq	r2,r17,2568 <_Unwind_SjLj_RaiseException+0x9c>
    2534:	14c0171e 	bne	r2,r19,2594 <_Unwind_SjLj_RaiseException+0xc8>
    2538:	d8800217 	ldw	r2,8(sp)
    253c:	10800017 	ldw	r2,0(r2)
    2540:	d8800215 	stw	r2,8(sp)
    2544:	103ff01e 	bne	r2,zero,2508 <__alt_mem_VGA_Subsystem_Char_Buf_Subsystem_Onchip_SRAM+0xf7002508>
    2548:	00800144 	movi	r2,5
    254c:	dfc00717 	ldw	ra,28(sp)
    2550:	dcc00617 	ldw	r19,24(sp)
    2554:	dc800517 	ldw	r18,20(sp)
    2558:	dc400417 	ldw	r17,16(sp)
    255c:	dc000317 	ldw	r16,12(sp)
    2560:	dec00804 	addi	sp,sp,32
    2564:	f800283a 	ret
    2568:	d8800217 	ldw	r2,8(sp)
    256c:	80000315 	stw	zero,12(r16)
    2570:	d9400204 	addi	r5,sp,8
    2574:	80800415 	stw	r2,16(r16)
    2578:	8009883a 	mov	r4,r16
    257c:	dc800215 	stw	r18,8(sp)
    2580:	00022f40 	call	22f4 <_Unwind_RaiseException_Phase2>
    2584:	00c001c4 	movi	r3,7
    2588:	10fff01e 	bne	r2,r3,254c <__alt_mem_VGA_Subsystem_Char_Buf_Subsystem_Onchip_SRAM+0xf700254c>
    258c:	d9000204 	addi	r4,sp,8
    2590:	00023b40 	call	23b4 <uw_install_context.isra.1>
    2594:	008000c4 	movi	r2,3
    2598:	003fec06 	br	254c <__alt_mem_VGA_Subsystem_Char_Buf_Subsystem_Onchip_SRAM+0xf700254c>

0000259c <_Unwind_SjLj_ForcedUnwind>:
    259c:	00c000b4 	movhi	r3,2
    25a0:	18c26d04 	addi	r3,r3,2484
    25a4:	defffe04 	addi	sp,sp,-8
    25a8:	18c00017 	ldw	r3,0(r3)
    25ac:	dfc00115 	stw	ra,4(sp)
    25b0:	21400315 	stw	r5,12(r4)
    25b4:	21800415 	stw	r6,16(r4)
    25b8:	d80b883a 	mov	r5,sp
    25bc:	d8c00015 	stw	r3,0(sp)
    25c0:	00021dc0 	call	21dc <_Unwind_ForcedUnwind_Phase2>
    25c4:	00c001c4 	movi	r3,7
    25c8:	10c00326 	beq	r2,r3,25d8 <_Unwind_SjLj_ForcedUnwind+0x3c>
    25cc:	dfc00117 	ldw	ra,4(sp)
    25d0:	dec00204 	addi	sp,sp,8
    25d4:	f800283a 	ret
    25d8:	d809883a 	mov	r4,sp
    25dc:	00023b40 	call	23b4 <uw_install_context.isra.1>

000025e0 <_Unwind_SjLj_Resume>:
    25e0:	00c000b4 	movhi	r3,2
    25e4:	18c26d04 	addi	r3,r3,2484
    25e8:	18c00017 	ldw	r3,0(r3)
    25ec:	20800317 	ldw	r2,12(r4)
    25f0:	defffe04 	addi	sp,sp,-8
    25f4:	dfc00115 	stw	ra,4(sp)
    25f8:	d8c00015 	stw	r3,0(sp)
    25fc:	d80b883a 	mov	r5,sp
    2600:	1000041e 	bne	r2,zero,2614 <_Unwind_SjLj_Resume+0x34>
    2604:	00022f40 	call	22f4 <_Unwind_RaiseException_Phase2>
    2608:	00c001c4 	movi	r3,7
    260c:	10c00326 	beq	r2,r3,261c <_Unwind_SjLj_Resume+0x3c>
    2610:	00026fc0 	call	26fc <abort>
    2614:	00021dc0 	call	21dc <_Unwind_ForcedUnwind_Phase2>
    2618:	003ffb06 	br	2608 <__alt_mem_VGA_Subsystem_Char_Buf_Subsystem_Onchip_SRAM+0xf7002608>
    261c:	d809883a 	mov	r4,sp
    2620:	00023b40 	call	23b4 <uw_install_context.isra.1>

00002624 <_Unwind_SjLj_Resume_or_Rethrow>:
    2624:	20800317 	ldw	r2,12(r4)
    2628:	defffe04 	addi	sp,sp,-8
    262c:	dfc00115 	stw	ra,4(sp)
    2630:	1000041e 	bne	r2,zero,2644 <_Unwind_SjLj_Resume_or_Rethrow+0x20>
    2634:	00024cc0 	call	24cc <_Unwind_SjLj_RaiseException>
    2638:	dfc00117 	ldw	ra,4(sp)
    263c:	dec00204 	addi	sp,sp,8
    2640:	f800283a 	ret
    2644:	008000b4 	movhi	r2,2
    2648:	10826d04 	addi	r2,r2,2484
    264c:	10800017 	ldw	r2,0(r2)
    2650:	d80b883a 	mov	r5,sp
    2654:	d8800015 	stw	r2,0(sp)
    2658:	00021dc0 	call	21dc <_Unwind_ForcedUnwind_Phase2>
    265c:	00c001c4 	movi	r3,7
    2660:	10c00126 	beq	r2,r3,2668 <_Unwind_SjLj_Resume_or_Rethrow+0x44>
    2664:	00026fc0 	call	26fc <abort>
    2668:	d809883a 	mov	r4,sp
    266c:	00023b40 	call	23b4 <uw_install_context.isra.1>

00002670 <_Unwind_DeleteException>:
    2670:	20800217 	ldw	r2,8(r4)
    2674:	10000326 	beq	r2,zero,2684 <_Unwind_DeleteException+0x14>
    2678:	200b883a 	mov	r5,r4
    267c:	01000044 	movi	r4,1
    2680:	1000683a 	jmp	r2
    2684:	f800283a 	ret

00002688 <_Unwind_Backtrace>:
    2688:	008000b4 	movhi	r2,2
    268c:	10826d04 	addi	r2,r2,2484
    2690:	10800017 	ldw	r2,0(r2)
    2694:	defffc04 	addi	sp,sp,-16
    2698:	dc400215 	stw	r17,8(sp)
    269c:	dc000115 	stw	r16,4(sp)
    26a0:	dfc00315 	stw	ra,12(sp)
    26a4:	2023883a 	mov	r17,r4
    26a8:	2821883a 	mov	r16,r5
    26ac:	d8800015 	stw	r2,0(sp)
    26b0:	00000506 	br	26c8 <_Unwind_Backtrace+0x40>
    26b4:	883ee83a 	callr	r17
    26b8:	10000e1e 	bne	r2,zero,26f4 <_Unwind_Backtrace+0x6c>
    26bc:	d8800017 	ldw	r2,0(sp)
    26c0:	10800017 	ldw	r2,0(r2)
    26c4:	d8800015 	stw	r2,0(sp)
    26c8:	800b883a 	mov	r5,r16
    26cc:	d809883a 	mov	r4,sp
    26d0:	103ff81e 	bne	r2,zero,26b4 <__alt_mem_VGA_Subsystem_Char_Buf_Subsystem_Onchip_SRAM+0xf70026b4>
    26d4:	883ee83a 	callr	r17
    26d8:	1000061e 	bne	r2,zero,26f4 <_Unwind_Backtrace+0x6c>
    26dc:	00800144 	movi	r2,5
    26e0:	dfc00317 	ldw	ra,12(sp)
    26e4:	dc400217 	ldw	r17,8(sp)
    26e8:	dc000117 	ldw	r16,4(sp)
    26ec:	dec00404 	addi	sp,sp,16
    26f0:	f800283a 	ret
    26f4:	008000c4 	movi	r2,3
    26f8:	003ff906 	br	26e0 <__alt_mem_VGA_Subsystem_Char_Buf_Subsystem_Onchip_SRAM+0xf70026e0>

000026fc <abort>:
    26fc:	deffff04 	addi	sp,sp,-4
    2700:	01000184 	movi	r4,6
    2704:	dfc00015 	stw	ra,0(sp)
    2708:	00033f00 	call	33f0 <raise>
    270c:	01000044 	movi	r4,1
    2710:	0017fbc0 	call	17fbc <_exit>

00002714 <malloc>:
    2714:	008000b4 	movhi	r2,2
    2718:	10bad304 	addi	r2,r2,-5300
    271c:	200b883a 	mov	r5,r4
    2720:	11000017 	ldw	r4,0(r2)
    2724:	000273c1 	jmpi	273c <_malloc_r>

00002728 <free>:
    2728:	008000b4 	movhi	r2,2
    272c:	10bad304 	addi	r2,r2,-5300
    2730:	200b883a 	mov	r5,r4
    2734:	11000017 	ldw	r4,0(r2)
    2738:	00094801 	jmpi	9480 <_free_r>

0000273c <_malloc_r>:
    273c:	defff504 	addi	sp,sp,-44
    2740:	dc800315 	stw	r18,12(sp)
    2744:	dfc00a15 	stw	ra,40(sp)
    2748:	df000915 	stw	fp,36(sp)
    274c:	ddc00815 	stw	r23,32(sp)
    2750:	dd800715 	stw	r22,28(sp)
    2754:	dd400615 	stw	r21,24(sp)
    2758:	dd000515 	stw	r20,20(sp)
    275c:	dcc00415 	stw	r19,16(sp)
    2760:	dc400215 	stw	r17,8(sp)
    2764:	dc000115 	stw	r16,4(sp)
    2768:	288002c4 	addi	r2,r5,11
    276c:	00c00584 	movi	r3,22
    2770:	2025883a 	mov	r18,r4
    2774:	18807f2e 	bgeu	r3,r2,2974 <_malloc_r+0x238>
    2778:	047ffe04 	movi	r17,-8
    277c:	1462703a 	and	r17,r2,r17
    2780:	8800a316 	blt	r17,zero,2a10 <_malloc_r+0x2d4>
    2784:	8940a236 	bltu	r17,r5,2a10 <_malloc_r+0x2d4>
    2788:	00185c00 	call	185c0 <__malloc_lock>
    278c:	00807dc4 	movi	r2,503
    2790:	1441e92e 	bgeu	r2,r17,2f38 <_malloc_r+0x7fc>
    2794:	8804d27a 	srli	r2,r17,9
    2798:	1000a126 	beq	r2,zero,2a20 <_malloc_r+0x2e4>
    279c:	00c00104 	movi	r3,4
    27a0:	18811e36 	bltu	r3,r2,2c1c <_malloc_r+0x4e0>
    27a4:	8804d1ba 	srli	r2,r17,6
    27a8:	12000e44 	addi	r8,r2,57
    27ac:	11c00e04 	addi	r7,r2,56
    27b0:	4209883a 	add	r4,r8,r8
    27b4:	04c000b4 	movhi	r19,2
    27b8:	2109883a 	add	r4,r4,r4
    27bc:	9cf35704 	addi	r19,r19,-12964
    27c0:	2109883a 	add	r4,r4,r4
    27c4:	9909883a 	add	r4,r19,r4
    27c8:	24000117 	ldw	r16,4(r4)
    27cc:	213ffe04 	addi	r4,r4,-8
    27d0:	24009726 	beq	r4,r16,2a30 <_malloc_r+0x2f4>
    27d4:	80800117 	ldw	r2,4(r16)
    27d8:	01bfff04 	movi	r6,-4
    27dc:	014003c4 	movi	r5,15
    27e0:	1184703a 	and	r2,r2,r6
    27e4:	1447c83a 	sub	r3,r2,r17
    27e8:	28c00716 	blt	r5,r3,2808 <_malloc_r+0xcc>
    27ec:	1800920e 	bge	r3,zero,2a38 <_malloc_r+0x2fc>
    27f0:	84000317 	ldw	r16,12(r16)
    27f4:	24008e26 	beq	r4,r16,2a30 <_malloc_r+0x2f4>
    27f8:	80800117 	ldw	r2,4(r16)
    27fc:	1184703a 	and	r2,r2,r6
    2800:	1447c83a 	sub	r3,r2,r17
    2804:	28fff90e 	bge	r5,r3,27ec <__alt_mem_VGA_Subsystem_Char_Buf_Subsystem_Onchip_SRAM+0xf70027ec>
    2808:	3809883a 	mov	r4,r7
    280c:	018000b4 	movhi	r6,2
    2810:	9c000417 	ldw	r16,16(r19)
    2814:	31b35704 	addi	r6,r6,-12964
    2818:	32000204 	addi	r8,r6,8
    281c:	82013426 	beq	r16,r8,2cf0 <_malloc_r+0x5b4>
    2820:	80c00117 	ldw	r3,4(r16)
    2824:	00bfff04 	movi	r2,-4
    2828:	188e703a 	and	r7,r3,r2
    282c:	3c45c83a 	sub	r2,r7,r17
    2830:	00c003c4 	movi	r3,15
    2834:	18811f16 	blt	r3,r2,2cb4 <_malloc_r+0x578>
    2838:	32000515 	stw	r8,20(r6)
    283c:	32000415 	stw	r8,16(r6)
    2840:	10007f0e 	bge	r2,zero,2a40 <_malloc_r+0x304>
    2844:	00807fc4 	movi	r2,511
    2848:	11c0fd36 	bltu	r2,r7,2c40 <_malloc_r+0x504>
    284c:	3806d0fa 	srli	r3,r7,3
    2850:	01c00044 	movi	r7,1
    2854:	30800117 	ldw	r2,4(r6)
    2858:	19400044 	addi	r5,r3,1
    285c:	294b883a 	add	r5,r5,r5
    2860:	1807d0ba 	srai	r3,r3,2
    2864:	294b883a 	add	r5,r5,r5
    2868:	294b883a 	add	r5,r5,r5
    286c:	298b883a 	add	r5,r5,r6
    2870:	38c6983a 	sll	r3,r7,r3
    2874:	29c00017 	ldw	r7,0(r5)
    2878:	2a7ffe04 	addi	r9,r5,-8
    287c:	1886b03a 	or	r3,r3,r2
    2880:	82400315 	stw	r9,12(r16)
    2884:	81c00215 	stw	r7,8(r16)
    2888:	30c00115 	stw	r3,4(r6)
    288c:	2c000015 	stw	r16,0(r5)
    2890:	3c000315 	stw	r16,12(r7)
    2894:	2005d0ba 	srai	r2,r4,2
    2898:	01400044 	movi	r5,1
    289c:	288a983a 	sll	r5,r5,r2
    28a0:	19406f36 	bltu	r3,r5,2a60 <_malloc_r+0x324>
    28a4:	28c4703a 	and	r2,r5,r3
    28a8:	10000a1e 	bne	r2,zero,28d4 <_malloc_r+0x198>
    28ac:	00bfff04 	movi	r2,-4
    28b0:	294b883a 	add	r5,r5,r5
    28b4:	2088703a 	and	r4,r4,r2
    28b8:	28c4703a 	and	r2,r5,r3
    28bc:	21000104 	addi	r4,r4,4
    28c0:	1000041e 	bne	r2,zero,28d4 <_malloc_r+0x198>
    28c4:	294b883a 	add	r5,r5,r5
    28c8:	28c4703a 	and	r2,r5,r3
    28cc:	21000104 	addi	r4,r4,4
    28d0:	103ffc26 	beq	r2,zero,28c4 <__alt_mem_VGA_Subsystem_Char_Buf_Subsystem_Onchip_SRAM+0xf70028c4>
    28d4:	02bfff04 	movi	r10,-4
    28d8:	024003c4 	movi	r9,15
    28dc:	21800044 	addi	r6,r4,1
    28e0:	318d883a 	add	r6,r6,r6
    28e4:	318d883a 	add	r6,r6,r6
    28e8:	318d883a 	add	r6,r6,r6
    28ec:	998d883a 	add	r6,r19,r6
    28f0:	333ffe04 	addi	r12,r6,-8
    28f4:	2017883a 	mov	r11,r4
    28f8:	31800104 	addi	r6,r6,4
    28fc:	34000017 	ldw	r16,0(r6)
    2900:	31fffd04 	addi	r7,r6,-12
    2904:	81c0041e 	bne	r16,r7,2918 <_malloc_r+0x1dc>
    2908:	0000fb06 	br	2cf8 <_malloc_r+0x5bc>
    290c:	1801030e 	bge	r3,zero,2d1c <_malloc_r+0x5e0>
    2910:	84000317 	ldw	r16,12(r16)
    2914:	81c0f826 	beq	r16,r7,2cf8 <_malloc_r+0x5bc>
    2918:	80800117 	ldw	r2,4(r16)
    291c:	1284703a 	and	r2,r2,r10
    2920:	1447c83a 	sub	r3,r2,r17
    2924:	48fff90e 	bge	r9,r3,290c <__alt_mem_VGA_Subsystem_Char_Buf_Subsystem_Onchip_SRAM+0xf700290c>
    2928:	80800317 	ldw	r2,12(r16)
    292c:	81000217 	ldw	r4,8(r16)
    2930:	89400054 	ori	r5,r17,1
    2934:	81400115 	stw	r5,4(r16)
    2938:	20800315 	stw	r2,12(r4)
    293c:	11000215 	stw	r4,8(r2)
    2940:	8463883a 	add	r17,r16,r17
    2944:	9c400515 	stw	r17,20(r19)
    2948:	9c400415 	stw	r17,16(r19)
    294c:	18800054 	ori	r2,r3,1
    2950:	88800115 	stw	r2,4(r17)
    2954:	8a000315 	stw	r8,12(r17)
    2958:	8a000215 	stw	r8,8(r17)
    295c:	88e3883a 	add	r17,r17,r3
    2960:	88c00015 	stw	r3,0(r17)
    2964:	9009883a 	mov	r4,r18
    2968:	00185e40 	call	185e4 <__malloc_unlock>
    296c:	80800204 	addi	r2,r16,8
    2970:	00001b06 	br	29e0 <_malloc_r+0x2a4>
    2974:	04400404 	movi	r17,16
    2978:	89402536 	bltu	r17,r5,2a10 <_malloc_r+0x2d4>
    297c:	00185c00 	call	185c0 <__malloc_lock>
    2980:	00800184 	movi	r2,6
    2984:	01000084 	movi	r4,2
    2988:	04c000b4 	movhi	r19,2
    298c:	1085883a 	add	r2,r2,r2
    2990:	9cf35704 	addi	r19,r19,-12964
    2994:	1085883a 	add	r2,r2,r2
    2998:	9885883a 	add	r2,r19,r2
    299c:	14000117 	ldw	r16,4(r2)
    29a0:	10fffe04 	addi	r3,r2,-8
    29a4:	80c0d926 	beq	r16,r3,2d0c <_malloc_r+0x5d0>
    29a8:	80c00117 	ldw	r3,4(r16)
    29ac:	81000317 	ldw	r4,12(r16)
    29b0:	00bfff04 	movi	r2,-4
    29b4:	1884703a 	and	r2,r3,r2
    29b8:	81400217 	ldw	r5,8(r16)
    29bc:	8085883a 	add	r2,r16,r2
    29c0:	10c00117 	ldw	r3,4(r2)
    29c4:	29000315 	stw	r4,12(r5)
    29c8:	21400215 	stw	r5,8(r4)
    29cc:	18c00054 	ori	r3,r3,1
    29d0:	10c00115 	stw	r3,4(r2)
    29d4:	9009883a 	mov	r4,r18
    29d8:	00185e40 	call	185e4 <__malloc_unlock>
    29dc:	80800204 	addi	r2,r16,8
    29e0:	dfc00a17 	ldw	ra,40(sp)
    29e4:	df000917 	ldw	fp,36(sp)
    29e8:	ddc00817 	ldw	r23,32(sp)
    29ec:	dd800717 	ldw	r22,28(sp)
    29f0:	dd400617 	ldw	r21,24(sp)
    29f4:	dd000517 	ldw	r20,20(sp)
    29f8:	dcc00417 	ldw	r19,16(sp)
    29fc:	dc800317 	ldw	r18,12(sp)
    2a00:	dc400217 	ldw	r17,8(sp)
    2a04:	dc000117 	ldw	r16,4(sp)
    2a08:	dec00b04 	addi	sp,sp,44
    2a0c:	f800283a 	ret
    2a10:	00800304 	movi	r2,12
    2a14:	90800015 	stw	r2,0(r18)
    2a18:	0005883a 	mov	r2,zero
    2a1c:	003ff006 	br	29e0 <__alt_mem_VGA_Subsystem_Char_Buf_Subsystem_Onchip_SRAM+0xf70029e0>
    2a20:	01002004 	movi	r4,128
    2a24:	02001004 	movi	r8,64
    2a28:	01c00fc4 	movi	r7,63
    2a2c:	003f6106 	br	27b4 <__alt_mem_VGA_Subsystem_Char_Buf_Subsystem_Onchip_SRAM+0xf70027b4>
    2a30:	4009883a 	mov	r4,r8
    2a34:	003f7506 	br	280c <__alt_mem_VGA_Subsystem_Char_Buf_Subsystem_Onchip_SRAM+0xf700280c>
    2a38:	81000317 	ldw	r4,12(r16)
    2a3c:	003fde06 	br	29b8 <__alt_mem_VGA_Subsystem_Char_Buf_Subsystem_Onchip_SRAM+0xf70029b8>
    2a40:	81c5883a 	add	r2,r16,r7
    2a44:	11400117 	ldw	r5,4(r2)
    2a48:	9009883a 	mov	r4,r18
    2a4c:	29400054 	ori	r5,r5,1
    2a50:	11400115 	stw	r5,4(r2)
    2a54:	00185e40 	call	185e4 <__malloc_unlock>
    2a58:	80800204 	addi	r2,r16,8
    2a5c:	003fe006 	br	29e0 <__alt_mem_VGA_Subsystem_Char_Buf_Subsystem_Onchip_SRAM+0xf70029e0>
    2a60:	9c000217 	ldw	r16,8(r19)
    2a64:	00bfff04 	movi	r2,-4
    2a68:	85800117 	ldw	r22,4(r16)
    2a6c:	b0ac703a 	and	r22,r22,r2
    2a70:	b4400336 	bltu	r22,r17,2a80 <_malloc_r+0x344>
    2a74:	b445c83a 	sub	r2,r22,r17
    2a78:	00c003c4 	movi	r3,15
    2a7c:	18805d16 	blt	r3,r2,2bf4 <_malloc_r+0x4b8>
    2a80:	05c000b4 	movhi	r23,2
    2a84:	008000b4 	movhi	r2,2
    2a88:	10827004 	addi	r2,r2,2496
    2a8c:	bdfacf04 	addi	r23,r23,-5316
    2a90:	15400017 	ldw	r21,0(r2)
    2a94:	b8c00017 	ldw	r3,0(r23)
    2a98:	00bfffc4 	movi	r2,-1
    2a9c:	858d883a 	add	r6,r16,r22
    2aa0:	8d6b883a 	add	r21,r17,r21
    2aa4:	1880ea26 	beq	r3,r2,2e50 <_malloc_r+0x714>
    2aa8:	ad4403c4 	addi	r21,r21,4111
    2aac:	00bc0004 	movi	r2,-4096
    2ab0:	a8aa703a 	and	r21,r21,r2
    2ab4:	a80b883a 	mov	r5,r21
    2ab8:	9009883a 	mov	r4,r18
    2abc:	d9800015 	stw	r6,0(sp)
    2ac0:	00030dc0 	call	30dc <_sbrk_r>
    2ac4:	1029883a 	mov	r20,r2
    2ac8:	00bfffc4 	movi	r2,-1
    2acc:	d9800017 	ldw	r6,0(sp)
    2ad0:	a080e826 	beq	r20,r2,2e74 <_malloc_r+0x738>
    2ad4:	a180a636 	bltu	r20,r6,2d70 <_malloc_r+0x634>
    2ad8:	070000b4 	movhi	fp,2
    2adc:	e7028004 	addi	fp,fp,2560
    2ae0:	e0800017 	ldw	r2,0(fp)
    2ae4:	a887883a 	add	r3,r21,r2
    2ae8:	e0c00015 	stw	r3,0(fp)
    2aec:	3500e626 	beq	r6,r20,2e88 <_malloc_r+0x74c>
    2af0:	b9000017 	ldw	r4,0(r23)
    2af4:	00bfffc4 	movi	r2,-1
    2af8:	2080ee26 	beq	r4,r2,2eb4 <_malloc_r+0x778>
    2afc:	a185c83a 	sub	r2,r20,r6
    2b00:	10c5883a 	add	r2,r2,r3
    2b04:	e0800015 	stw	r2,0(fp)
    2b08:	a0c001cc 	andi	r3,r20,7
    2b0c:	1800bc26 	beq	r3,zero,2e00 <_malloc_r+0x6c4>
    2b10:	a0e9c83a 	sub	r20,r20,r3
    2b14:	00840204 	movi	r2,4104
    2b18:	a5000204 	addi	r20,r20,8
    2b1c:	10c7c83a 	sub	r3,r2,r3
    2b20:	a545883a 	add	r2,r20,r21
    2b24:	1083ffcc 	andi	r2,r2,4095
    2b28:	18abc83a 	sub	r21,r3,r2
    2b2c:	a80b883a 	mov	r5,r21
    2b30:	9009883a 	mov	r4,r18
    2b34:	00030dc0 	call	30dc <_sbrk_r>
    2b38:	00ffffc4 	movi	r3,-1
    2b3c:	10c0e126 	beq	r2,r3,2ec4 <_malloc_r+0x788>
    2b40:	1505c83a 	sub	r2,r2,r20
    2b44:	1545883a 	add	r2,r2,r21
    2b48:	10800054 	ori	r2,r2,1
    2b4c:	e0c00017 	ldw	r3,0(fp)
    2b50:	9d000215 	stw	r20,8(r19)
    2b54:	a0800115 	stw	r2,4(r20)
    2b58:	a8c7883a 	add	r3,r21,r3
    2b5c:	e0c00015 	stw	r3,0(fp)
    2b60:	84c00e26 	beq	r16,r19,2b9c <_malloc_r+0x460>
    2b64:	018003c4 	movi	r6,15
    2b68:	3580a72e 	bgeu	r6,r22,2e08 <_malloc_r+0x6cc>
    2b6c:	81400117 	ldw	r5,4(r16)
    2b70:	013ffe04 	movi	r4,-8
    2b74:	b0bffd04 	addi	r2,r22,-12
    2b78:	1104703a 	and	r2,r2,r4
    2b7c:	2900004c 	andi	r4,r5,1
    2b80:	2088b03a 	or	r4,r4,r2
    2b84:	81000115 	stw	r4,4(r16)
    2b88:	01400144 	movi	r5,5
    2b8c:	8089883a 	add	r4,r16,r2
    2b90:	21400115 	stw	r5,4(r4)
    2b94:	21400215 	stw	r5,8(r4)
    2b98:	3080cd36 	bltu	r6,r2,2ed0 <_malloc_r+0x794>
    2b9c:	008000b4 	movhi	r2,2
    2ba0:	10826f04 	addi	r2,r2,2492
    2ba4:	11000017 	ldw	r4,0(r2)
    2ba8:	20c0012e 	bgeu	r4,r3,2bb0 <_malloc_r+0x474>
    2bac:	10c00015 	stw	r3,0(r2)
    2bb0:	008000b4 	movhi	r2,2
    2bb4:	10826e04 	addi	r2,r2,2488
    2bb8:	11000017 	ldw	r4,0(r2)
    2bbc:	9c000217 	ldw	r16,8(r19)
    2bc0:	20c0012e 	bgeu	r4,r3,2bc8 <_malloc_r+0x48c>
    2bc4:	10c00015 	stw	r3,0(r2)
    2bc8:	80c00117 	ldw	r3,4(r16)
    2bcc:	00bfff04 	movi	r2,-4
    2bd0:	1886703a 	and	r3,r3,r2
    2bd4:	1c45c83a 	sub	r2,r3,r17
    2bd8:	1c400236 	bltu	r3,r17,2be4 <_malloc_r+0x4a8>
    2bdc:	00c003c4 	movi	r3,15
    2be0:	18800416 	blt	r3,r2,2bf4 <_malloc_r+0x4b8>
    2be4:	9009883a 	mov	r4,r18
    2be8:	00185e40 	call	185e4 <__malloc_unlock>
    2bec:	0005883a 	mov	r2,zero
    2bf0:	003f7b06 	br	29e0 <__alt_mem_VGA_Subsystem_Char_Buf_Subsystem_Onchip_SRAM+0xf70029e0>
    2bf4:	88c00054 	ori	r3,r17,1
    2bf8:	80c00115 	stw	r3,4(r16)
    2bfc:	8463883a 	add	r17,r16,r17
    2c00:	10800054 	ori	r2,r2,1
    2c04:	9c400215 	stw	r17,8(r19)
    2c08:	88800115 	stw	r2,4(r17)
    2c0c:	9009883a 	mov	r4,r18
    2c10:	00185e40 	call	185e4 <__malloc_unlock>
    2c14:	80800204 	addi	r2,r16,8
    2c18:	003f7106 	br	29e0 <__alt_mem_VGA_Subsystem_Char_Buf_Subsystem_Onchip_SRAM+0xf70029e0>
    2c1c:	00c00504 	movi	r3,20
    2c20:	18804a2e 	bgeu	r3,r2,2d4c <_malloc_r+0x610>
    2c24:	00c01504 	movi	r3,84
    2c28:	18806e36 	bltu	r3,r2,2de4 <_malloc_r+0x6a8>
    2c2c:	8804d33a 	srli	r2,r17,12
    2c30:	12001bc4 	addi	r8,r2,111
    2c34:	11c01b84 	addi	r7,r2,110
    2c38:	4209883a 	add	r4,r8,r8
    2c3c:	003edd06 	br	27b4 <__alt_mem_VGA_Subsystem_Char_Buf_Subsystem_Onchip_SRAM+0xf70027b4>
    2c40:	3804d27a 	srli	r2,r7,9
    2c44:	00c00104 	movi	r3,4
    2c48:	1880442e 	bgeu	r3,r2,2d5c <_malloc_r+0x620>
    2c4c:	00c00504 	movi	r3,20
    2c50:	18808136 	bltu	r3,r2,2e58 <_malloc_r+0x71c>
    2c54:	11401704 	addi	r5,r2,92
    2c58:	10c016c4 	addi	r3,r2,91
    2c5c:	294b883a 	add	r5,r5,r5
    2c60:	294b883a 	add	r5,r5,r5
    2c64:	294b883a 	add	r5,r5,r5
    2c68:	994b883a 	add	r5,r19,r5
    2c6c:	28800017 	ldw	r2,0(r5)
    2c70:	018000b4 	movhi	r6,2
    2c74:	297ffe04 	addi	r5,r5,-8
    2c78:	31b35704 	addi	r6,r6,-12964
    2c7c:	28806526 	beq	r5,r2,2e14 <_malloc_r+0x6d8>
    2c80:	01bfff04 	movi	r6,-4
    2c84:	10c00117 	ldw	r3,4(r2)
    2c88:	1986703a 	and	r3,r3,r6
    2c8c:	38c0022e 	bgeu	r7,r3,2c98 <_malloc_r+0x55c>
    2c90:	10800217 	ldw	r2,8(r2)
    2c94:	28bffb1e 	bne	r5,r2,2c84 <__alt_mem_VGA_Subsystem_Char_Buf_Subsystem_Onchip_SRAM+0xf7002c84>
    2c98:	11400317 	ldw	r5,12(r2)
    2c9c:	98c00117 	ldw	r3,4(r19)
    2ca0:	81400315 	stw	r5,12(r16)
    2ca4:	80800215 	stw	r2,8(r16)
    2ca8:	2c000215 	stw	r16,8(r5)
    2cac:	14000315 	stw	r16,12(r2)
    2cb0:	003ef806 	br	2894 <__alt_mem_VGA_Subsystem_Char_Buf_Subsystem_Onchip_SRAM+0xf7002894>
    2cb4:	88c00054 	ori	r3,r17,1
    2cb8:	80c00115 	stw	r3,4(r16)
    2cbc:	8463883a 	add	r17,r16,r17
    2cc0:	34400515 	stw	r17,20(r6)
    2cc4:	34400415 	stw	r17,16(r6)
    2cc8:	10c00054 	ori	r3,r2,1
    2ccc:	8a000315 	stw	r8,12(r17)
    2cd0:	8a000215 	stw	r8,8(r17)
    2cd4:	88c00115 	stw	r3,4(r17)
    2cd8:	88a3883a 	add	r17,r17,r2
    2cdc:	88800015 	stw	r2,0(r17)
    2ce0:	9009883a 	mov	r4,r18
    2ce4:	00185e40 	call	185e4 <__malloc_unlock>
    2ce8:	80800204 	addi	r2,r16,8
    2cec:	003f3c06 	br	29e0 <__alt_mem_VGA_Subsystem_Char_Buf_Subsystem_Onchip_SRAM+0xf70029e0>
    2cf0:	30c00117 	ldw	r3,4(r6)
    2cf4:	003ee706 	br	2894 <__alt_mem_VGA_Subsystem_Char_Buf_Subsystem_Onchip_SRAM+0xf7002894>
    2cf8:	5ac00044 	addi	r11,r11,1
    2cfc:	588000cc 	andi	r2,r11,3
    2d00:	31800204 	addi	r6,r6,8
    2d04:	103efd1e 	bne	r2,zero,28fc <__alt_mem_VGA_Subsystem_Char_Buf_Subsystem_Onchip_SRAM+0xf70028fc>
    2d08:	00002406 	br	2d9c <_malloc_r+0x660>
    2d0c:	14000317 	ldw	r16,12(r2)
    2d10:	143f251e 	bne	r2,r16,29a8 <__alt_mem_VGA_Subsystem_Char_Buf_Subsystem_Onchip_SRAM+0xf70029a8>
    2d14:	21000084 	addi	r4,r4,2
    2d18:	003ebc06 	br	280c <__alt_mem_VGA_Subsystem_Char_Buf_Subsystem_Onchip_SRAM+0xf700280c>
    2d1c:	8085883a 	add	r2,r16,r2
    2d20:	10c00117 	ldw	r3,4(r2)
    2d24:	81000317 	ldw	r4,12(r16)
    2d28:	81400217 	ldw	r5,8(r16)
    2d2c:	18c00054 	ori	r3,r3,1
    2d30:	10c00115 	stw	r3,4(r2)
    2d34:	29000315 	stw	r4,12(r5)
    2d38:	21400215 	stw	r5,8(r4)
    2d3c:	9009883a 	mov	r4,r18
    2d40:	00185e40 	call	185e4 <__malloc_unlock>
    2d44:	80800204 	addi	r2,r16,8
    2d48:	003f2506 	br	29e0 <__alt_mem_VGA_Subsystem_Char_Buf_Subsystem_Onchip_SRAM+0xf70029e0>
    2d4c:	12001704 	addi	r8,r2,92
    2d50:	11c016c4 	addi	r7,r2,91
    2d54:	4209883a 	add	r4,r8,r8
    2d58:	003e9606 	br	27b4 <__alt_mem_VGA_Subsystem_Char_Buf_Subsystem_Onchip_SRAM+0xf70027b4>
    2d5c:	3804d1ba 	srli	r2,r7,6
    2d60:	11400e44 	addi	r5,r2,57
    2d64:	10c00e04 	addi	r3,r2,56
    2d68:	294b883a 	add	r5,r5,r5
    2d6c:	003fbc06 	br	2c60 <__alt_mem_VGA_Subsystem_Char_Buf_Subsystem_Onchip_SRAM+0xf7002c60>
    2d70:	84ff5926 	beq	r16,r19,2ad8 <__alt_mem_VGA_Subsystem_Char_Buf_Subsystem_Onchip_SRAM+0xf7002ad8>
    2d74:	008000b4 	movhi	r2,2
    2d78:	10b35704 	addi	r2,r2,-12964
    2d7c:	14000217 	ldw	r16,8(r2)
    2d80:	00bfff04 	movi	r2,-4
    2d84:	80c00117 	ldw	r3,4(r16)
    2d88:	1886703a 	and	r3,r3,r2
    2d8c:	003f9106 	br	2bd4 <__alt_mem_VGA_Subsystem_Char_Buf_Subsystem_Onchip_SRAM+0xf7002bd4>
    2d90:	60800217 	ldw	r2,8(r12)
    2d94:	213fffc4 	addi	r4,r4,-1
    2d98:	1300651e 	bne	r2,r12,2f30 <_malloc_r+0x7f4>
    2d9c:	208000cc 	andi	r2,r4,3
    2da0:	633ffe04 	addi	r12,r12,-8
    2da4:	103ffa1e 	bne	r2,zero,2d90 <__alt_mem_VGA_Subsystem_Char_Buf_Subsystem_Onchip_SRAM+0xf7002d90>
    2da8:	98800117 	ldw	r2,4(r19)
    2dac:	0146303a 	nor	r3,zero,r5
    2db0:	1884703a 	and	r2,r3,r2
    2db4:	98800115 	stw	r2,4(r19)
    2db8:	294b883a 	add	r5,r5,r5
    2dbc:	117f2836 	bltu	r2,r5,2a60 <__alt_mem_VGA_Subsystem_Char_Buf_Subsystem_Onchip_SRAM+0xf7002a60>
    2dc0:	283f2726 	beq	r5,zero,2a60 <__alt_mem_VGA_Subsystem_Char_Buf_Subsystem_Onchip_SRAM+0xf7002a60>
    2dc4:	2886703a 	and	r3,r5,r2
    2dc8:	5809883a 	mov	r4,r11
    2dcc:	183ec31e 	bne	r3,zero,28dc <__alt_mem_VGA_Subsystem_Char_Buf_Subsystem_Onchip_SRAM+0xf70028dc>
    2dd0:	294b883a 	add	r5,r5,r5
    2dd4:	2886703a 	and	r3,r5,r2
    2dd8:	21000104 	addi	r4,r4,4
    2ddc:	183ffc26 	beq	r3,zero,2dd0 <__alt_mem_VGA_Subsystem_Char_Buf_Subsystem_Onchip_SRAM+0xf7002dd0>
    2de0:	003ebe06 	br	28dc <__alt_mem_VGA_Subsystem_Char_Buf_Subsystem_Onchip_SRAM+0xf70028dc>
    2de4:	00c05504 	movi	r3,340
    2de8:	18801236 	bltu	r3,r2,2e34 <_malloc_r+0x6f8>
    2dec:	8804d3fa 	srli	r2,r17,15
    2df0:	12001e04 	addi	r8,r2,120
    2df4:	11c01dc4 	addi	r7,r2,119
    2df8:	4209883a 	add	r4,r8,r8
    2dfc:	003e6d06 	br	27b4 <__alt_mem_VGA_Subsystem_Char_Buf_Subsystem_Onchip_SRAM+0xf70027b4>
    2e00:	00c40004 	movi	r3,4096
    2e04:	003f4606 	br	2b20 <__alt_mem_VGA_Subsystem_Char_Buf_Subsystem_Onchip_SRAM+0xf7002b20>
    2e08:	00800044 	movi	r2,1
    2e0c:	a0800115 	stw	r2,4(r20)
    2e10:	003f7406 	br	2be4 <__alt_mem_VGA_Subsystem_Char_Buf_Subsystem_Onchip_SRAM+0xf7002be4>
    2e14:	1805d0ba 	srai	r2,r3,2
    2e18:	01c00044 	movi	r7,1
    2e1c:	30c00117 	ldw	r3,4(r6)
    2e20:	388e983a 	sll	r7,r7,r2
    2e24:	2805883a 	mov	r2,r5
    2e28:	38c6b03a 	or	r3,r7,r3
    2e2c:	30c00115 	stw	r3,4(r6)
    2e30:	003f9b06 	br	2ca0 <__alt_mem_VGA_Subsystem_Char_Buf_Subsystem_Onchip_SRAM+0xf7002ca0>
    2e34:	00c15504 	movi	r3,1364
    2e38:	18801a36 	bltu	r3,r2,2ea4 <_malloc_r+0x768>
    2e3c:	8804d4ba 	srli	r2,r17,18
    2e40:	12001f44 	addi	r8,r2,125
    2e44:	11c01f04 	addi	r7,r2,124
    2e48:	4209883a 	add	r4,r8,r8
    2e4c:	003e5906 	br	27b4 <__alt_mem_VGA_Subsystem_Char_Buf_Subsystem_Onchip_SRAM+0xf70027b4>
    2e50:	ad400404 	addi	r21,r21,16
    2e54:	003f1706 	br	2ab4 <__alt_mem_VGA_Subsystem_Char_Buf_Subsystem_Onchip_SRAM+0xf7002ab4>
    2e58:	00c01504 	movi	r3,84
    2e5c:	18802336 	bltu	r3,r2,2eec <_malloc_r+0x7b0>
    2e60:	3804d33a 	srli	r2,r7,12
    2e64:	11401bc4 	addi	r5,r2,111
    2e68:	10c01b84 	addi	r3,r2,110
    2e6c:	294b883a 	add	r5,r5,r5
    2e70:	003f7b06 	br	2c60 <__alt_mem_VGA_Subsystem_Char_Buf_Subsystem_Onchip_SRAM+0xf7002c60>
    2e74:	9c000217 	ldw	r16,8(r19)
    2e78:	00bfff04 	movi	r2,-4
    2e7c:	80c00117 	ldw	r3,4(r16)
    2e80:	1886703a 	and	r3,r3,r2
    2e84:	003f5306 	br	2bd4 <__alt_mem_VGA_Subsystem_Char_Buf_Subsystem_Onchip_SRAM+0xf7002bd4>
    2e88:	3083ffcc 	andi	r2,r6,4095
    2e8c:	103f181e 	bne	r2,zero,2af0 <__alt_mem_VGA_Subsystem_Char_Buf_Subsystem_Onchip_SRAM+0xf7002af0>
    2e90:	99000217 	ldw	r4,8(r19)
    2e94:	b545883a 	add	r2,r22,r21
    2e98:	10800054 	ori	r2,r2,1
    2e9c:	20800115 	stw	r2,4(r4)
    2ea0:	003f3e06 	br	2b9c <__alt_mem_VGA_Subsystem_Char_Buf_Subsystem_Onchip_SRAM+0xf7002b9c>
    2ea4:	01003f84 	movi	r4,254
    2ea8:	02001fc4 	movi	r8,127
    2eac:	01c01f84 	movi	r7,126
    2eb0:	003e4006 	br	27b4 <__alt_mem_VGA_Subsystem_Char_Buf_Subsystem_Onchip_SRAM+0xf70027b4>
    2eb4:	008000b4 	movhi	r2,2
    2eb8:	10bacf04 	addi	r2,r2,-5316
    2ebc:	15000015 	stw	r20,0(r2)
    2ec0:	003f1106 	br	2b08 <__alt_mem_VGA_Subsystem_Char_Buf_Subsystem_Onchip_SRAM+0xf7002b08>
    2ec4:	00800044 	movi	r2,1
    2ec8:	002b883a 	mov	r21,zero
    2ecc:	003f1f06 	br	2b4c <__alt_mem_VGA_Subsystem_Char_Buf_Subsystem_Onchip_SRAM+0xf7002b4c>
    2ed0:	81400204 	addi	r5,r16,8
    2ed4:	9009883a 	mov	r4,r18
    2ed8:	00094800 	call	9480 <_free_r>
    2edc:	008000b4 	movhi	r2,2
    2ee0:	10828004 	addi	r2,r2,2560
    2ee4:	10c00017 	ldw	r3,0(r2)
    2ee8:	003f2c06 	br	2b9c <__alt_mem_VGA_Subsystem_Char_Buf_Subsystem_Onchip_SRAM+0xf7002b9c>
    2eec:	00c05504 	movi	r3,340
    2ef0:	18800536 	bltu	r3,r2,2f08 <_malloc_r+0x7cc>
    2ef4:	3804d3fa 	srli	r2,r7,15
    2ef8:	11401e04 	addi	r5,r2,120
    2efc:	10c01dc4 	addi	r3,r2,119
    2f00:	294b883a 	add	r5,r5,r5
    2f04:	003f5606 	br	2c60 <__alt_mem_VGA_Subsystem_Char_Buf_Subsystem_Onchip_SRAM+0xf7002c60>
    2f08:	00c15504 	movi	r3,1364
    2f0c:	18800536 	bltu	r3,r2,2f24 <_malloc_r+0x7e8>
    2f10:	3804d4ba 	srli	r2,r7,18
    2f14:	11401f44 	addi	r5,r2,125
    2f18:	10c01f04 	addi	r3,r2,124
    2f1c:	294b883a 	add	r5,r5,r5
    2f20:	003f4f06 	br	2c60 <__alt_mem_VGA_Subsystem_Char_Buf_Subsystem_Onchip_SRAM+0xf7002c60>
    2f24:	01403f84 	movi	r5,254
    2f28:	00c01f84 	movi	r3,126
    2f2c:	003f4c06 	br	2c60 <__alt_mem_VGA_Subsystem_Char_Buf_Subsystem_Onchip_SRAM+0xf7002c60>
    2f30:	98800117 	ldw	r2,4(r19)
    2f34:	003fa006 	br	2db8 <__alt_mem_VGA_Subsystem_Char_Buf_Subsystem_Onchip_SRAM+0xf7002db8>
    2f38:	8808d0fa 	srli	r4,r17,3
    2f3c:	20800044 	addi	r2,r4,1
    2f40:	1085883a 	add	r2,r2,r2
    2f44:	003e9006 	br	2988 <__alt_mem_VGA_Subsystem_Char_Buf_Subsystem_Onchip_SRAM+0xf7002988>

00002f48 <memset>:
    2f48:	20c000cc 	andi	r3,r4,3
    2f4c:	2005883a 	mov	r2,r4
    2f50:	18004426 	beq	r3,zero,3064 <memset+0x11c>
    2f54:	31ffffc4 	addi	r7,r6,-1
    2f58:	30004026 	beq	r6,zero,305c <memset+0x114>
    2f5c:	2813883a 	mov	r9,r5
    2f60:	200d883a 	mov	r6,r4
    2f64:	2007883a 	mov	r3,r4
    2f68:	00000406 	br	2f7c <memset+0x34>
    2f6c:	3a3fffc4 	addi	r8,r7,-1
    2f70:	31800044 	addi	r6,r6,1
    2f74:	38003926 	beq	r7,zero,305c <memset+0x114>
    2f78:	400f883a 	mov	r7,r8
    2f7c:	18c00044 	addi	r3,r3,1
    2f80:	32400005 	stb	r9,0(r6)
    2f84:	1a0000cc 	andi	r8,r3,3
    2f88:	403ff81e 	bne	r8,zero,2f6c <__alt_mem_VGA_Subsystem_Char_Buf_Subsystem_Onchip_SRAM+0xf7002f6c>
    2f8c:	010000c4 	movi	r4,3
    2f90:	21c02d2e 	bgeu	r4,r7,3048 <memset+0x100>
    2f94:	29003fcc 	andi	r4,r5,255
    2f98:	200c923a 	slli	r6,r4,8
    2f9c:	3108b03a 	or	r4,r6,r4
    2fa0:	200c943a 	slli	r6,r4,16
    2fa4:	218cb03a 	or	r6,r4,r6
    2fa8:	010003c4 	movi	r4,15
    2fac:	21c0182e 	bgeu	r4,r7,3010 <memset+0xc8>
    2fb0:	3b3ffc04 	addi	r12,r7,-16
    2fb4:	6018d13a 	srli	r12,r12,4
    2fb8:	1a000104 	addi	r8,r3,4
    2fbc:	1ac00204 	addi	r11,r3,8
    2fc0:	6008913a 	slli	r4,r12,4
    2fc4:	1a800304 	addi	r10,r3,12
    2fc8:	1813883a 	mov	r9,r3
    2fcc:	21000504 	addi	r4,r4,20
    2fd0:	1909883a 	add	r4,r3,r4
    2fd4:	49800015 	stw	r6,0(r9)
    2fd8:	41800015 	stw	r6,0(r8)
    2fdc:	59800015 	stw	r6,0(r11)
    2fe0:	51800015 	stw	r6,0(r10)
    2fe4:	42000404 	addi	r8,r8,16
    2fe8:	4a400404 	addi	r9,r9,16
    2fec:	5ac00404 	addi	r11,r11,16
    2ff0:	52800404 	addi	r10,r10,16
    2ff4:	413ff71e 	bne	r8,r4,2fd4 <__alt_mem_VGA_Subsystem_Char_Buf_Subsystem_Onchip_SRAM+0xf7002fd4>
    2ff8:	63000044 	addi	r12,r12,1
    2ffc:	6018913a 	slli	r12,r12,4
    3000:	39c003cc 	andi	r7,r7,15
    3004:	010000c4 	movi	r4,3
    3008:	1b07883a 	add	r3,r3,r12
    300c:	21c00e2e 	bgeu	r4,r7,3048 <memset+0x100>
    3010:	1813883a 	mov	r9,r3
    3014:	3811883a 	mov	r8,r7
    3018:	010000c4 	movi	r4,3
    301c:	49800015 	stw	r6,0(r9)
    3020:	423fff04 	addi	r8,r8,-4
    3024:	4a400104 	addi	r9,r9,4
    3028:	223ffc36 	bltu	r4,r8,301c <__alt_mem_VGA_Subsystem_Char_Buf_Subsystem_Onchip_SRAM+0xf700301c>
    302c:	393fff04 	addi	r4,r7,-4
    3030:	2008d0ba 	srli	r4,r4,2
    3034:	39c000cc 	andi	r7,r7,3
    3038:	21000044 	addi	r4,r4,1
    303c:	2109883a 	add	r4,r4,r4
    3040:	2109883a 	add	r4,r4,r4
    3044:	1907883a 	add	r3,r3,r4
    3048:	38000526 	beq	r7,zero,3060 <memset+0x118>
    304c:	19cf883a 	add	r7,r3,r7
    3050:	19400005 	stb	r5,0(r3)
    3054:	18c00044 	addi	r3,r3,1
    3058:	38fffd1e 	bne	r7,r3,3050 <__alt_mem_VGA_Subsystem_Char_Buf_Subsystem_Onchip_SRAM+0xf7003050>
    305c:	f800283a 	ret
    3060:	f800283a 	ret
    3064:	2007883a 	mov	r3,r4
    3068:	300f883a 	mov	r7,r6
    306c:	003fc706 	br	2f8c <__alt_mem_VGA_Subsystem_Char_Buf_Subsystem_Onchip_SRAM+0xf7002f8c>

00003070 <_printf_r>:
    3070:	defffd04 	addi	sp,sp,-12
    3074:	2805883a 	mov	r2,r5
    3078:	dfc00015 	stw	ra,0(sp)
    307c:	d9800115 	stw	r6,4(sp)
    3080:	d9c00215 	stw	r7,8(sp)
    3084:	21400217 	ldw	r5,8(r4)
    3088:	d9c00104 	addi	r7,sp,4
    308c:	100d883a 	mov	r6,r2
    3090:	000357c0 	call	357c <___vfprintf_internal_r>
    3094:	dfc00017 	ldw	ra,0(sp)
    3098:	dec00304 	addi	sp,sp,12
    309c:	f800283a 	ret

000030a0 <printf>:
    30a0:	defffc04 	addi	sp,sp,-16
    30a4:	dfc00015 	stw	ra,0(sp)
    30a8:	d9400115 	stw	r5,4(sp)
    30ac:	d9800215 	stw	r6,8(sp)
    30b0:	d9c00315 	stw	r7,12(sp)
    30b4:	008000b4 	movhi	r2,2
    30b8:	10bad304 	addi	r2,r2,-5300
    30bc:	10800017 	ldw	r2,0(r2)
    30c0:	200b883a 	mov	r5,r4
    30c4:	d9800104 	addi	r6,sp,4
    30c8:	11000217 	ldw	r4,8(r2)
    30cc:	00057740 	call	5774 <__vfprintf_internal>
    30d0:	dfc00017 	ldw	ra,0(sp)
    30d4:	dec00404 	addi	sp,sp,16
    30d8:	f800283a 	ret

000030dc <_sbrk_r>:
    30dc:	defffd04 	addi	sp,sp,-12
    30e0:	dc000015 	stw	r16,0(sp)
    30e4:	040000b4 	movhi	r16,2
    30e8:	dc400115 	stw	r17,4(sp)
    30ec:	84027104 	addi	r16,r16,2500
    30f0:	2023883a 	mov	r17,r4
    30f4:	2809883a 	mov	r4,r5
    30f8:	dfc00215 	stw	ra,8(sp)
    30fc:	80000015 	stw	zero,0(r16)
    3100:	00187a40 	call	187a4 <sbrk>
    3104:	00ffffc4 	movi	r3,-1
    3108:	10c00526 	beq	r2,r3,3120 <_sbrk_r+0x44>
    310c:	dfc00217 	ldw	ra,8(sp)
    3110:	dc400117 	ldw	r17,4(sp)
    3114:	dc000017 	ldw	r16,0(sp)
    3118:	dec00304 	addi	sp,sp,12
    311c:	f800283a 	ret
    3120:	80c00017 	ldw	r3,0(r16)
    3124:	183ff926 	beq	r3,zero,310c <__alt_mem_VGA_Subsystem_Char_Buf_Subsystem_Onchip_SRAM+0xf700310c>
    3128:	88c00015 	stw	r3,0(r17)
    312c:	003ff706 	br	310c <__alt_mem_VGA_Subsystem_Char_Buf_Subsystem_Onchip_SRAM+0xf700310c>

00003130 <scanf>:
    3130:	defffc04 	addi	sp,sp,-16
    3134:	dfc00015 	stw	ra,0(sp)
    3138:	d9400115 	stw	r5,4(sp)
    313c:	d9800215 	stw	r6,8(sp)
    3140:	d9c00315 	stw	r7,12(sp)
    3144:	008000b4 	movhi	r2,2
    3148:	10bad304 	addi	r2,r2,-5300
    314c:	200d883a 	mov	r6,r4
    3150:	11000017 	ldw	r4,0(r2)
    3154:	d9c00104 	addi	r7,sp,4
    3158:	21400117 	ldw	r5,4(r4)
    315c:	000708c0 	call	708c <_vfscanf_r>
    3160:	dfc00017 	ldw	ra,0(sp)
    3164:	dec00404 	addi	sp,sp,16
    3168:	f800283a 	ret

0000316c <_scanf_r>:
    316c:	defffd04 	addi	sp,sp,-12
    3170:	2805883a 	mov	r2,r5
    3174:	dfc00015 	stw	ra,0(sp)
    3178:	d9800115 	stw	r6,4(sp)
    317c:	d9c00215 	stw	r7,8(sp)
    3180:	21400117 	ldw	r5,4(r4)
    3184:	d9c00104 	addi	r7,sp,4
    3188:	100d883a 	mov	r6,r2
    318c:	000708c0 	call	708c <_vfscanf_r>
    3190:	dfc00017 	ldw	ra,0(sp)
    3194:	dec00304 	addi	sp,sp,12
    3198:	f800283a 	ret

0000319c <_init_signal_r>:
    319c:	2080b717 	ldw	r2,732(r4)
    31a0:	10000226 	beq	r2,zero,31ac <_init_signal_r+0x10>
    31a4:	0005883a 	mov	r2,zero
    31a8:	f800283a 	ret
    31ac:	defffe04 	addi	sp,sp,-8
    31b0:	01402004 	movi	r5,128
    31b4:	dc000015 	stw	r16,0(sp)
    31b8:	dfc00115 	stw	ra,4(sp)
    31bc:	2021883a 	mov	r16,r4
    31c0:	000273c0 	call	273c <_malloc_r>
    31c4:	8080b715 	stw	r2,732(r16)
    31c8:	10000d26 	beq	r2,zero,3200 <_init_signal_r+0x64>
    31cc:	0007883a 	mov	r3,zero
    31d0:	01002004 	movi	r4,128
    31d4:	00000106 	br	31dc <_init_signal_r+0x40>
    31d8:	8080b717 	ldw	r2,732(r16)
    31dc:	10c5883a 	add	r2,r2,r3
    31e0:	10000015 	stw	zero,0(r2)
    31e4:	18c00104 	addi	r3,r3,4
    31e8:	193ffb1e 	bne	r3,r4,31d8 <__alt_mem_VGA_Subsystem_Char_Buf_Subsystem_Onchip_SRAM+0xf70031d8>
    31ec:	0005883a 	mov	r2,zero
    31f0:	dfc00117 	ldw	ra,4(sp)
    31f4:	dc000017 	ldw	r16,0(sp)
    31f8:	dec00204 	addi	sp,sp,8
    31fc:	f800283a 	ret
    3200:	00bfffc4 	movi	r2,-1
    3204:	003ffa06 	br	31f0 <__alt_mem_VGA_Subsystem_Char_Buf_Subsystem_Onchip_SRAM+0xf70031f0>

00003208 <_signal_r>:
    3208:	00c007c4 	movi	r3,31
    320c:	19401536 	bltu	r3,r5,3264 <_signal_r+0x5c>
    3210:	2080b717 	ldw	r2,732(r4)
    3214:	defffc04 	addi	sp,sp,-16
    3218:	dc800215 	stw	r18,8(sp)
    321c:	dc400115 	stw	r17,4(sp)
    3220:	dc000015 	stw	r16,0(sp)
    3224:	dfc00315 	stw	ra,12(sp)
    3228:	3023883a 	mov	r17,r6
    322c:	2021883a 	mov	r16,r4
    3230:	2825883a 	mov	r18,r5
    3234:	10000f26 	beq	r2,zero,3274 <_signal_r+0x6c>
    3238:	948b883a 	add	r5,r18,r18
    323c:	294b883a 	add	r5,r5,r5
    3240:	114b883a 	add	r5,r2,r5
    3244:	28800017 	ldw	r2,0(r5)
    3248:	2c400015 	stw	r17,0(r5)
    324c:	dfc00317 	ldw	ra,12(sp)
    3250:	dc800217 	ldw	r18,8(sp)
    3254:	dc400117 	ldw	r17,4(sp)
    3258:	dc000017 	ldw	r16,0(sp)
    325c:	dec00404 	addi	sp,sp,16
    3260:	f800283a 	ret
    3264:	00c00584 	movi	r3,22
    3268:	20c00015 	stw	r3,0(r4)
    326c:	00bfffc4 	movi	r2,-1
    3270:	f800283a 	ret
    3274:	000319c0 	call	319c <_init_signal_r>
    3278:	1000021e 	bne	r2,zero,3284 <_signal_r+0x7c>
    327c:	8080b717 	ldw	r2,732(r16)
    3280:	003fed06 	br	3238 <__alt_mem_VGA_Subsystem_Char_Buf_Subsystem_Onchip_SRAM+0xf7003238>
    3284:	00bfffc4 	movi	r2,-1
    3288:	003ff006 	br	324c <__alt_mem_VGA_Subsystem_Char_Buf_Subsystem_Onchip_SRAM+0xf700324c>

0000328c <_raise_r>:
    328c:	008007c4 	movi	r2,31
    3290:	11402936 	bltu	r2,r5,3338 <_raise_r+0xac>
    3294:	20c0b717 	ldw	r3,732(r4)
    3298:	defffd04 	addi	sp,sp,-12
    329c:	dc400115 	stw	r17,4(sp)
    32a0:	dc000015 	stw	r16,0(sp)
    32a4:	dfc00215 	stw	ra,8(sp)
    32a8:	2021883a 	mov	r16,r4
    32ac:	2823883a 	mov	r17,r5
    32b0:	18001726 	beq	r3,zero,3310 <_raise_r+0x84>
    32b4:	2945883a 	add	r2,r5,r5
    32b8:	1085883a 	add	r2,r2,r2
    32bc:	1887883a 	add	r3,r3,r2
    32c0:	19800017 	ldw	r6,0(r3)
    32c4:	30001226 	beq	r6,zero,3310 <_raise_r+0x84>
    32c8:	00800044 	movi	r2,1
    32cc:	30800e26 	beq	r6,r2,3308 <_raise_r+0x7c>
    32d0:	013fffc4 	movi	r4,-1
    32d4:	31000926 	beq	r6,r4,32fc <_raise_r+0x70>
    32d8:	18000015 	stw	zero,0(r3)
    32dc:	2809883a 	mov	r4,r5
    32e0:	303ee83a 	callr	r6
    32e4:	0005883a 	mov	r2,zero
    32e8:	dfc00217 	ldw	ra,8(sp)
    32ec:	dc400117 	ldw	r17,4(sp)
    32f0:	dc000017 	ldw	r16,0(sp)
    32f4:	dec00304 	addi	sp,sp,12
    32f8:	f800283a 	ret
    32fc:	00c00584 	movi	r3,22
    3300:	80c00015 	stw	r3,0(r16)
    3304:	003ff806 	br	32e8 <__alt_mem_VGA_Subsystem_Char_Buf_Subsystem_Onchip_SRAM+0xf70032e8>
    3308:	0005883a 	mov	r2,zero
    330c:	003ff606 	br	32e8 <__alt_mem_VGA_Subsystem_Char_Buf_Subsystem_Onchip_SRAM+0xf70032e8>
    3310:	8009883a 	mov	r4,r16
    3314:	000349c0 	call	349c <_getpid_r>
    3318:	880d883a 	mov	r6,r17
    331c:	100b883a 	mov	r5,r2
    3320:	8009883a 	mov	r4,r16
    3324:	dfc00217 	ldw	ra,8(sp)
    3328:	dc400117 	ldw	r17,4(sp)
    332c:	dc000017 	ldw	r16,0(sp)
    3330:	dec00304 	addi	sp,sp,12
    3334:	00034401 	jmpi	3440 <_kill_r>
    3338:	00800584 	movi	r2,22
    333c:	20800015 	stw	r2,0(r4)
    3340:	00bfffc4 	movi	r2,-1
    3344:	f800283a 	ret

00003348 <__sigtramp_r>:
    3348:	008007c4 	movi	r2,31
    334c:	11402436 	bltu	r2,r5,33e0 <__sigtramp_r+0x98>
    3350:	20c0b717 	ldw	r3,732(r4)
    3354:	defffd04 	addi	sp,sp,-12
    3358:	dc400115 	stw	r17,4(sp)
    335c:	dc000015 	stw	r16,0(sp)
    3360:	dfc00215 	stw	ra,8(sp)
    3364:	2021883a 	mov	r16,r4
    3368:	2823883a 	mov	r17,r5
    336c:	18001826 	beq	r3,zero,33d0 <__sigtramp_r+0x88>
    3370:	8c45883a 	add	r2,r17,r17
    3374:	1085883a 	add	r2,r2,r2
    3378:	1885883a 	add	r2,r3,r2
    337c:	10c00017 	ldw	r3,0(r2)
    3380:	18001126 	beq	r3,zero,33c8 <__sigtramp_r+0x80>
    3384:	013fffc4 	movi	r4,-1
    3388:	19000d26 	beq	r3,r4,33c0 <__sigtramp_r+0x78>
    338c:	01000044 	movi	r4,1
    3390:	19000926 	beq	r3,r4,33b8 <__sigtramp_r+0x70>
    3394:	10000015 	stw	zero,0(r2)
    3398:	8809883a 	mov	r4,r17
    339c:	183ee83a 	callr	r3
    33a0:	0005883a 	mov	r2,zero
    33a4:	dfc00217 	ldw	ra,8(sp)
    33a8:	dc400117 	ldw	r17,4(sp)
    33ac:	dc000017 	ldw	r16,0(sp)
    33b0:	dec00304 	addi	sp,sp,12
    33b4:	f800283a 	ret
    33b8:	008000c4 	movi	r2,3
    33bc:	003ff906 	br	33a4 <__alt_mem_VGA_Subsystem_Char_Buf_Subsystem_Onchip_SRAM+0xf70033a4>
    33c0:	00800084 	movi	r2,2
    33c4:	003ff706 	br	33a4 <__alt_mem_VGA_Subsystem_Char_Buf_Subsystem_Onchip_SRAM+0xf70033a4>
    33c8:	00800044 	movi	r2,1
    33cc:	003ff506 	br	33a4 <__alt_mem_VGA_Subsystem_Char_Buf_Subsystem_Onchip_SRAM+0xf70033a4>
    33d0:	000319c0 	call	319c <_init_signal_r>
    33d4:	1000041e 	bne	r2,zero,33e8 <__sigtramp_r+0xa0>
    33d8:	80c0b717 	ldw	r3,732(r16)
    33dc:	003fe406 	br	3370 <__alt_mem_VGA_Subsystem_Char_Buf_Subsystem_Onchip_SRAM+0xf7003370>
    33e0:	00bfffc4 	movi	r2,-1
    33e4:	f800283a 	ret
    33e8:	00bfffc4 	movi	r2,-1
    33ec:	003fed06 	br	33a4 <__alt_mem_VGA_Subsystem_Char_Buf_Subsystem_Onchip_SRAM+0xf70033a4>

000033f0 <raise>:
    33f0:	008000b4 	movhi	r2,2
    33f4:	10bad304 	addi	r2,r2,-5300
    33f8:	200b883a 	mov	r5,r4
    33fc:	11000017 	ldw	r4,0(r2)
    3400:	000328c1 	jmpi	328c <_raise_r>

00003404 <signal>:
    3404:	008000b4 	movhi	r2,2
    3408:	10bad304 	addi	r2,r2,-5300
    340c:	280d883a 	mov	r6,r5
    3410:	200b883a 	mov	r5,r4
    3414:	11000017 	ldw	r4,0(r2)
    3418:	00032081 	jmpi	3208 <_signal_r>

0000341c <_init_signal>:
    341c:	008000b4 	movhi	r2,2
    3420:	10bad304 	addi	r2,r2,-5300
    3424:	11000017 	ldw	r4,0(r2)
    3428:	000319c1 	jmpi	319c <_init_signal_r>

0000342c <__sigtramp>:
    342c:	008000b4 	movhi	r2,2
    3430:	10bad304 	addi	r2,r2,-5300
    3434:	200b883a 	mov	r5,r4
    3438:	11000017 	ldw	r4,0(r2)
    343c:	00033481 	jmpi	3348 <__sigtramp_r>

00003440 <_kill_r>:
    3440:	defffd04 	addi	sp,sp,-12
    3444:	2805883a 	mov	r2,r5
    3448:	dc000015 	stw	r16,0(sp)
    344c:	040000b4 	movhi	r16,2
    3450:	dc400115 	stw	r17,4(sp)
    3454:	84027104 	addi	r16,r16,2500
    3458:	2023883a 	mov	r17,r4
    345c:	300b883a 	mov	r5,r6
    3460:	1009883a 	mov	r4,r2
    3464:	dfc00215 	stw	ra,8(sp)
    3468:	80000015 	stw	zero,0(r16)
    346c:	00182180 	call	18218 <kill>
    3470:	00ffffc4 	movi	r3,-1
    3474:	10c00526 	beq	r2,r3,348c <_kill_r+0x4c>
    3478:	dfc00217 	ldw	ra,8(sp)
    347c:	dc400117 	ldw	r17,4(sp)
    3480:	dc000017 	ldw	r16,0(sp)
    3484:	dec00304 	addi	sp,sp,12
    3488:	f800283a 	ret
    348c:	80c00017 	ldw	r3,0(r16)
    3490:	183ff926 	beq	r3,zero,3478 <__alt_mem_VGA_Subsystem_Char_Buf_Subsystem_Onchip_SRAM+0xf7003478>
    3494:	88c00015 	stw	r3,0(r17)
    3498:	003ff706 	br	3478 <__alt_mem_VGA_Subsystem_Char_Buf_Subsystem_Onchip_SRAM+0xf7003478>

0000349c <_getpid_r>:
    349c:	00180dc1 	jmpi	180dc <getpid>

000034a0 <strcmp>:
    34a0:	2144b03a 	or	r2,r4,r5
    34a4:	108000cc 	andi	r2,r2,3
    34a8:	1000171e 	bne	r2,zero,3508 <strcmp+0x68>
    34ac:	20800017 	ldw	r2,0(r4)
    34b0:	28c00017 	ldw	r3,0(r5)
    34b4:	10c0141e 	bne	r2,r3,3508 <strcmp+0x68>
    34b8:	027fbff4 	movhi	r9,65279
    34bc:	4a7fbfc4 	addi	r9,r9,-257
    34c0:	0086303a 	nor	r3,zero,r2
    34c4:	02202074 	movhi	r8,32897
    34c8:	1245883a 	add	r2,r2,r9
    34cc:	42202004 	addi	r8,r8,-32640
    34d0:	10c4703a 	and	r2,r2,r3
    34d4:	1204703a 	and	r2,r2,r8
    34d8:	10000226 	beq	r2,zero,34e4 <strcmp+0x44>
    34dc:	00002306 	br	356c <strcmp+0xcc>
    34e0:	1000221e 	bne	r2,zero,356c <strcmp+0xcc>
    34e4:	21000104 	addi	r4,r4,4
    34e8:	20c00017 	ldw	r3,0(r4)
    34ec:	29400104 	addi	r5,r5,4
    34f0:	29800017 	ldw	r6,0(r5)
    34f4:	1a4f883a 	add	r7,r3,r9
    34f8:	00c4303a 	nor	r2,zero,r3
    34fc:	3884703a 	and	r2,r7,r2
    3500:	1204703a 	and	r2,r2,r8
    3504:	19bff626 	beq	r3,r6,34e0 <__alt_mem_VGA_Subsystem_Char_Buf_Subsystem_Onchip_SRAM+0xf70034e0>
    3508:	20800003 	ldbu	r2,0(r4)
    350c:	10c03fcc 	andi	r3,r2,255
    3510:	18c0201c 	xori	r3,r3,128
    3514:	18ffe004 	addi	r3,r3,-128
    3518:	18000c26 	beq	r3,zero,354c <strcmp+0xac>
    351c:	29800007 	ldb	r6,0(r5)
    3520:	19800326 	beq	r3,r6,3530 <strcmp+0x90>
    3524:	00001306 	br	3574 <strcmp+0xd4>
    3528:	29800007 	ldb	r6,0(r5)
    352c:	11800b1e 	bne	r2,r6,355c <strcmp+0xbc>
    3530:	21000044 	addi	r4,r4,1
    3534:	20c00003 	ldbu	r3,0(r4)
    3538:	29400044 	addi	r5,r5,1
    353c:	18803fcc 	andi	r2,r3,255
    3540:	1080201c 	xori	r2,r2,128
    3544:	10bfe004 	addi	r2,r2,-128
    3548:	103ff71e 	bne	r2,zero,3528 <__alt_mem_VGA_Subsystem_Char_Buf_Subsystem_Onchip_SRAM+0xf7003528>
    354c:	0007883a 	mov	r3,zero
    3550:	28800003 	ldbu	r2,0(r5)
    3554:	1885c83a 	sub	r2,r3,r2
    3558:	f800283a 	ret
    355c:	28800003 	ldbu	r2,0(r5)
    3560:	18c03fcc 	andi	r3,r3,255
    3564:	1885c83a 	sub	r2,r3,r2
    3568:	f800283a 	ret
    356c:	0005883a 	mov	r2,zero
    3570:	f800283a 	ret
    3574:	10c03fcc 	andi	r3,r2,255
    3578:	003ff506 	br	3550 <__alt_mem_VGA_Subsystem_Char_Buf_Subsystem_Onchip_SRAM+0xf7003550>

0000357c <___vfprintf_internal_r>:
    357c:	deffb804 	addi	sp,sp,-288
    3580:	dfc04715 	stw	ra,284(sp)
    3584:	ddc04515 	stw	r23,276(sp)
    3588:	dd404315 	stw	r21,268(sp)
    358c:	d9002c15 	stw	r4,176(sp)
    3590:	282f883a 	mov	r23,r5
    3594:	302b883a 	mov	r21,r6
    3598:	d9c02d15 	stw	r7,180(sp)
    359c:	df004615 	stw	fp,280(sp)
    35a0:	dd804415 	stw	r22,272(sp)
    35a4:	dd004215 	stw	r20,264(sp)
    35a8:	dcc04115 	stw	r19,260(sp)
    35ac:	dc804015 	stw	r18,256(sp)
    35b0:	dc403f15 	stw	r17,252(sp)
    35b4:	dc003e15 	stw	r16,248(sp)
    35b8:	00099f40 	call	99f4 <_localeconv_r>
    35bc:	10800017 	ldw	r2,0(r2)
    35c0:	1009883a 	mov	r4,r2
    35c4:	d8803415 	stw	r2,208(sp)
    35c8:	000b5680 	call	b568 <strlen>
    35cc:	d8803715 	stw	r2,220(sp)
    35d0:	d8802c17 	ldw	r2,176(sp)
    35d4:	10000226 	beq	r2,zero,35e0 <___vfprintf_internal_r+0x64>
    35d8:	10800e17 	ldw	r2,56(r2)
    35dc:	1000f926 	beq	r2,zero,39c4 <___vfprintf_internal_r+0x448>
    35e0:	b880030b 	ldhu	r2,12(r23)
    35e4:	10c8000c 	andi	r3,r2,8192
    35e8:	1800061e 	bne	r3,zero,3604 <___vfprintf_internal_r+0x88>
    35ec:	b9001917 	ldw	r4,100(r23)
    35f0:	00f7ffc4 	movi	r3,-8193
    35f4:	10880014 	ori	r2,r2,8192
    35f8:	20c6703a 	and	r3,r4,r3
    35fc:	b880030d 	sth	r2,12(r23)
    3600:	b8c01915 	stw	r3,100(r23)
    3604:	10c0020c 	andi	r3,r2,8
    3608:	1800c126 	beq	r3,zero,3910 <___vfprintf_internal_r+0x394>
    360c:	b8c00417 	ldw	r3,16(r23)
    3610:	1800bf26 	beq	r3,zero,3910 <___vfprintf_internal_r+0x394>
    3614:	1080068c 	andi	r2,r2,26
    3618:	00c00284 	movi	r3,10
    361c:	10c0c426 	beq	r2,r3,3930 <___vfprintf_internal_r+0x3b4>
    3620:	d8c00404 	addi	r3,sp,16
    3624:	050000b4 	movhi	r20,2
    3628:	d9001e04 	addi	r4,sp,120
    362c:	a5314484 	addi	r20,r20,-15086
    3630:	d8c01e15 	stw	r3,120(sp)
    3634:	d8002015 	stw	zero,128(sp)
    3638:	d8001f15 	stw	zero,124(sp)
    363c:	d8003315 	stw	zero,204(sp)
    3640:	d8003615 	stw	zero,216(sp)
    3644:	d8003815 	stw	zero,224(sp)
    3648:	1811883a 	mov	r8,r3
    364c:	d8003915 	stw	zero,228(sp)
    3650:	d8003a15 	stw	zero,232(sp)
    3654:	d8002f15 	stw	zero,188(sp)
    3658:	d9002815 	stw	r4,160(sp)
    365c:	a8800007 	ldb	r2,0(r21)
    3660:	10027b26 	beq	r2,zero,4050 <___vfprintf_internal_r+0xad4>
    3664:	00c00944 	movi	r3,37
    3668:	a821883a 	mov	r16,r21
    366c:	10c0021e 	bne	r2,r3,3678 <___vfprintf_internal_r+0xfc>
    3670:	00001406 	br	36c4 <___vfprintf_internal_r+0x148>
    3674:	10c00326 	beq	r2,r3,3684 <___vfprintf_internal_r+0x108>
    3678:	84000044 	addi	r16,r16,1
    367c:	80800007 	ldb	r2,0(r16)
    3680:	103ffc1e 	bne	r2,zero,3674 <__alt_mem_VGA_Subsystem_Char_Buf_Subsystem_Onchip_SRAM+0xf7003674>
    3684:	8563c83a 	sub	r17,r16,r21
    3688:	88000e26 	beq	r17,zero,36c4 <___vfprintf_internal_r+0x148>
    368c:	d8c02017 	ldw	r3,128(sp)
    3690:	d8801f17 	ldw	r2,124(sp)
    3694:	45400015 	stw	r21,0(r8)
    3698:	1c47883a 	add	r3,r3,r17
    369c:	10800044 	addi	r2,r2,1
    36a0:	d8c02015 	stw	r3,128(sp)
    36a4:	44400115 	stw	r17,4(r8)
    36a8:	d8801f15 	stw	r2,124(sp)
    36ac:	00c001c4 	movi	r3,7
    36b0:	1880a716 	blt	r3,r2,3950 <___vfprintf_internal_r+0x3d4>
    36b4:	42000204 	addi	r8,r8,8
    36b8:	d9402f17 	ldw	r5,188(sp)
    36bc:	2c4b883a 	add	r5,r5,r17
    36c0:	d9402f15 	stw	r5,188(sp)
    36c4:	80800007 	ldb	r2,0(r16)
    36c8:	1000a826 	beq	r2,zero,396c <___vfprintf_internal_r+0x3f0>
    36cc:	84400047 	ldb	r17,1(r16)
    36d0:	00bfffc4 	movi	r2,-1
    36d4:	85400044 	addi	r21,r16,1
    36d8:	d8002785 	stb	zero,158(sp)
    36dc:	0007883a 	mov	r3,zero
    36e0:	000f883a 	mov	r7,zero
    36e4:	d8802915 	stw	r2,164(sp)
    36e8:	d8003115 	stw	zero,196(sp)
    36ec:	0025883a 	mov	r18,zero
    36f0:	01401604 	movi	r5,88
    36f4:	01800244 	movi	r6,9
    36f8:	02800a84 	movi	r10,42
    36fc:	02401b04 	movi	r9,108
    3700:	ad400044 	addi	r21,r21,1
    3704:	88bff804 	addi	r2,r17,-32
    3708:	28830436 	bltu	r5,r2,431c <___vfprintf_internal_r+0xda0>
    370c:	100490ba 	slli	r2,r2,2
    3710:	01000034 	movhi	r4,0
    3714:	210dc904 	addi	r4,r4,14116
    3718:	1105883a 	add	r2,r2,r4
    371c:	10800017 	ldw	r2,0(r2)
    3720:	1000683a 	jmp	r2
    3724:	0000423c 	xorhi	zero,zero,264
    3728:	0000431c 	xori	zero,zero,268
    372c:	0000431c 	xori	zero,zero,268
    3730:	0000425c 	xori	zero,zero,265
    3734:	0000431c 	xori	zero,zero,268
    3738:	0000431c 	xori	zero,zero,268
    373c:	0000431c 	xori	zero,zero,268
    3740:	0000431c 	xori	zero,zero,268
    3744:	0000431c 	xori	zero,zero,268
    3748:	0000431c 	xori	zero,zero,268
    374c:	000039d0 	cmplti	zero,zero,231
    3750:	00004178 	rdprs	zero,zero,261
    3754:	0000431c 	xori	zero,zero,268
    3758:	00003898 	cmpnei	zero,zero,226
    375c:	000039f8 	rdprs	zero,zero,231
    3760:	0000431c 	xori	zero,zero,268
    3764:	00003a38 	rdprs	zero,zero,232
    3768:	00003a44 	movi	zero,233
    376c:	00003a44 	movi	zero,233
    3770:	00003a44 	movi	zero,233
    3774:	00003a44 	movi	zero,233
    3778:	00003a44 	movi	zero,233
    377c:	00003a44 	movi	zero,233
    3780:	00003a44 	movi	zero,233
    3784:	00003a44 	movi	zero,233
    3788:	00003a44 	movi	zero,233
    378c:	0000431c 	xori	zero,zero,268
    3790:	0000431c 	xori	zero,zero,268
    3794:	0000431c 	xori	zero,zero,268
    3798:	0000431c 	xori	zero,zero,268
    379c:	0000431c 	xori	zero,zero,268
    37a0:	0000431c 	xori	zero,zero,268
    37a4:	0000431c 	xori	zero,zero,268
    37a8:	0000431c 	xori	zero,zero,268
    37ac:	0000431c 	xori	zero,zero,268
    37b0:	0000431c 	xori	zero,zero,268
    37b4:	00003a78 	rdprs	zero,zero,233
    37b8:	00003b34 	movhi	zero,236
    37bc:	0000431c 	xori	zero,zero,268
    37c0:	00003b34 	movhi	zero,236
    37c4:	0000431c 	xori	zero,zero,268
    37c8:	0000431c 	xori	zero,zero,268
    37cc:	0000431c 	xori	zero,zero,268
    37d0:	0000431c 	xori	zero,zero,268
    37d4:	00003bd4 	movui	zero,239
    37d8:	0000431c 	xori	zero,zero,268
    37dc:	0000431c 	xori	zero,zero,268
    37e0:	00003be0 	cmpeqi	zero,zero,239
    37e4:	0000431c 	xori	zero,zero,268
    37e8:	0000431c 	xori	zero,zero,268
    37ec:	0000431c 	xori	zero,zero,268
    37f0:	0000431c 	xori	zero,zero,268
    37f4:	0000431c 	xori	zero,zero,268
    37f8:	00004058 	cmpnei	zero,zero,257
    37fc:	0000431c 	xori	zero,zero,268
    3800:	0000431c 	xori	zero,zero,268
    3804:	000040b8 	rdprs	zero,zero,258
    3808:	0000431c 	xori	zero,zero,268
    380c:	0000431c 	xori	zero,zero,268
    3810:	0000431c 	xori	zero,zero,268
    3814:	0000431c 	xori	zero,zero,268
    3818:	0000431c 	xori	zero,zero,268
    381c:	0000431c 	xori	zero,zero,268
    3820:	0000431c 	xori	zero,zero,268
    3824:	0000431c 	xori	zero,zero,268
    3828:	0000431c 	xori	zero,zero,268
    382c:	0000431c 	xori	zero,zero,268
    3830:	000042c8 	cmpgei	zero,zero,267
    3834:	00004268 	cmpgeui	zero,zero,265
    3838:	00003b34 	movhi	zero,236
    383c:	00003b34 	movhi	zero,236
    3840:	00003b34 	movhi	zero,236
    3844:	00004278 	rdprs	zero,zero,265
    3848:	00004268 	cmpgeui	zero,zero,265
    384c:	0000431c 	xori	zero,zero,268
    3850:	0000431c 	xori	zero,zero,268
    3854:	00004284 	movi	zero,266
    3858:	0000431c 	xori	zero,zero,268
    385c:	00004294 	movui	zero,266
    3860:	00004168 	cmpgeui	zero,zero,261
    3864:	000038a4 	muli	zero,zero,226
    3868:	00004188 	cmpgei	zero,zero,262
    386c:	0000431c 	xori	zero,zero,268
    3870:	00004194 	movui	zero,262
    3874:	0000431c 	xori	zero,zero,268
    3878:	000041f0 	cmpltui	zero,zero,263
    387c:	0000431c 	xori	zero,zero,268
    3880:	0000431c 	xori	zero,zero,268
    3884:	00004200 	call	420 <_Z11euclids_modii+0x54>
    3888:	d9003117 	ldw	r4,196(sp)
    388c:	d8802d15 	stw	r2,180(sp)
    3890:	0109c83a 	sub	r4,zero,r4
    3894:	d9003115 	stw	r4,196(sp)
    3898:	94800114 	ori	r18,r18,4
    389c:	ac400007 	ldb	r17,0(r21)
    38a0:	003f9706 	br	3700 <__alt_mem_VGA_Subsystem_Char_Buf_Subsystem_Onchip_SRAM+0xf7003700>
    38a4:	00800c04 	movi	r2,48
    38a8:	d9002d17 	ldw	r4,180(sp)
    38ac:	d9402917 	ldw	r5,164(sp)
    38b0:	d8802705 	stb	r2,156(sp)
    38b4:	00801e04 	movi	r2,120
    38b8:	d8802745 	stb	r2,157(sp)
    38bc:	d8002785 	stb	zero,158(sp)
    38c0:	20c00104 	addi	r3,r4,4
    38c4:	24c00017 	ldw	r19,0(r4)
    38c8:	002d883a 	mov	r22,zero
    38cc:	90800094 	ori	r2,r18,2
    38d0:	28029a16 	blt	r5,zero,433c <___vfprintf_internal_r+0xdc0>
    38d4:	00bfdfc4 	movi	r2,-129
    38d8:	90a4703a 	and	r18,r18,r2
    38dc:	d8c02d15 	stw	r3,180(sp)
    38e0:	94800094 	ori	r18,r18,2
    38e4:	9802871e 	bne	r19,zero,4304 <___vfprintf_internal_r+0xd88>
    38e8:	008000b4 	movhi	r2,2
    38ec:	10b13d04 	addi	r2,r2,-15116
    38f0:	d8803915 	stw	r2,228(sp)
    38f4:	04401e04 	movi	r17,120
    38f8:	d8802917 	ldw	r2,164(sp)
    38fc:	0039883a 	mov	fp,zero
    3900:	1001e926 	beq	r2,zero,40a8 <___vfprintf_internal_r+0xb2c>
    3904:	0027883a 	mov	r19,zero
    3908:	002d883a 	mov	r22,zero
    390c:	00020506 	br	4124 <___vfprintf_internal_r+0xba8>
    3910:	d9002c17 	ldw	r4,176(sp)
    3914:	b80b883a 	mov	r5,r23
    3918:	00070d80 	call	70d8 <__swsetup_r>
    391c:	1005ac1e 	bne	r2,zero,4fd0 <___vfprintf_internal_r+0x1a54>
    3920:	b880030b 	ldhu	r2,12(r23)
    3924:	00c00284 	movi	r3,10
    3928:	1080068c 	andi	r2,r2,26
    392c:	10ff3c1e 	bne	r2,r3,3620 <__alt_mem_VGA_Subsystem_Char_Buf_Subsystem_Onchip_SRAM+0xf7003620>
    3930:	b880038f 	ldh	r2,14(r23)
    3934:	103f3a16 	blt	r2,zero,3620 <__alt_mem_VGA_Subsystem_Char_Buf_Subsystem_Onchip_SRAM+0xf7003620>
    3938:	d9c02d17 	ldw	r7,180(sp)
    393c:	d9002c17 	ldw	r4,176(sp)
    3940:	a80d883a 	mov	r6,r21
    3944:	b80b883a 	mov	r5,r23
    3948:	00057900 	call	5790 <__sbprintf>
    394c:	00001106 	br	3994 <___vfprintf_internal_r+0x418>
    3950:	d9002c17 	ldw	r4,176(sp)
    3954:	d9801e04 	addi	r6,sp,120
    3958:	b80b883a 	mov	r5,r23
    395c:	000fd3c0 	call	fd3c <__sprint_r>
    3960:	1000081e 	bne	r2,zero,3984 <___vfprintf_internal_r+0x408>
    3964:	da000404 	addi	r8,sp,16
    3968:	003f5306 	br	36b8 <__alt_mem_VGA_Subsystem_Char_Buf_Subsystem_Onchip_SRAM+0xf70036b8>
    396c:	d8802017 	ldw	r2,128(sp)
    3970:	10000426 	beq	r2,zero,3984 <___vfprintf_internal_r+0x408>
    3974:	d9002c17 	ldw	r4,176(sp)
    3978:	d9801e04 	addi	r6,sp,120
    397c:	b80b883a 	mov	r5,r23
    3980:	000fd3c0 	call	fd3c <__sprint_r>
    3984:	b880030b 	ldhu	r2,12(r23)
    3988:	1080100c 	andi	r2,r2,64
    398c:	1005901e 	bne	r2,zero,4fd0 <___vfprintf_internal_r+0x1a54>
    3990:	d8802f17 	ldw	r2,188(sp)
    3994:	dfc04717 	ldw	ra,284(sp)
    3998:	df004617 	ldw	fp,280(sp)
    399c:	ddc04517 	ldw	r23,276(sp)
    39a0:	dd804417 	ldw	r22,272(sp)
    39a4:	dd404317 	ldw	r21,268(sp)
    39a8:	dd004217 	ldw	r20,264(sp)
    39ac:	dcc04117 	ldw	r19,260(sp)
    39b0:	dc804017 	ldw	r18,256(sp)
    39b4:	dc403f17 	ldw	r17,252(sp)
    39b8:	dc003e17 	ldw	r16,248(sp)
    39bc:	dec04804 	addi	sp,sp,288
    39c0:	f800283a 	ret
    39c4:	d9002c17 	ldw	r4,176(sp)
    39c8:	00090ac0 	call	90ac <__sinit>
    39cc:	003f0406 	br	35e0 <__alt_mem_VGA_Subsystem_Char_Buf_Subsystem_Onchip_SRAM+0xf70035e0>
    39d0:	d8802d17 	ldw	r2,180(sp)
    39d4:	d9002d17 	ldw	r4,180(sp)
    39d8:	10800017 	ldw	r2,0(r2)
    39dc:	d8803115 	stw	r2,196(sp)
    39e0:	20800104 	addi	r2,r4,4
    39e4:	d9003117 	ldw	r4,196(sp)
    39e8:	203fa716 	blt	r4,zero,3888 <__alt_mem_VGA_Subsystem_Char_Buf_Subsystem_Onchip_SRAM+0xf7003888>
    39ec:	d8802d15 	stw	r2,180(sp)
    39f0:	ac400007 	ldb	r17,0(r21)
    39f4:	003f4206 	br	3700 <__alt_mem_VGA_Subsystem_Char_Buf_Subsystem_Onchip_SRAM+0xf7003700>
    39f8:	ac400007 	ldb	r17,0(r21)
    39fc:	aac00044 	addi	r11,r21,1
    3a00:	8a872826 	beq	r17,r10,56a4 <___vfprintf_internal_r+0x2128>
    3a04:	88bff404 	addi	r2,r17,-48
    3a08:	0009883a 	mov	r4,zero
    3a0c:	30867d36 	bltu	r6,r2,5404 <___vfprintf_internal_r+0x1e88>
    3a10:	5c400007 	ldb	r17,0(r11)
    3a14:	210002a4 	muli	r4,r4,10
    3a18:	5d400044 	addi	r21,r11,1
    3a1c:	a817883a 	mov	r11,r21
    3a20:	2089883a 	add	r4,r4,r2
    3a24:	88bff404 	addi	r2,r17,-48
    3a28:	30bff92e 	bgeu	r6,r2,3a10 <__alt_mem_VGA_Subsystem_Char_Buf_Subsystem_Onchip_SRAM+0xf7003a10>
    3a2c:	2005c916 	blt	r4,zero,5154 <___vfprintf_internal_r+0x1bd8>
    3a30:	d9002915 	stw	r4,164(sp)
    3a34:	003f3306 	br	3704 <__alt_mem_VGA_Subsystem_Char_Buf_Subsystem_Onchip_SRAM+0xf7003704>
    3a38:	94802014 	ori	r18,r18,128
    3a3c:	ac400007 	ldb	r17,0(r21)
    3a40:	003f2f06 	br	3700 <__alt_mem_VGA_Subsystem_Char_Buf_Subsystem_Onchip_SRAM+0xf7003700>
    3a44:	a809883a 	mov	r4,r21
    3a48:	d8003115 	stw	zero,196(sp)
    3a4c:	88bff404 	addi	r2,r17,-48
    3a50:	0017883a 	mov	r11,zero
    3a54:	24400007 	ldb	r17,0(r4)
    3a58:	5ac002a4 	muli	r11,r11,10
    3a5c:	ad400044 	addi	r21,r21,1
    3a60:	a809883a 	mov	r4,r21
    3a64:	12d7883a 	add	r11,r2,r11
    3a68:	88bff404 	addi	r2,r17,-48
    3a6c:	30bff92e 	bgeu	r6,r2,3a54 <__alt_mem_VGA_Subsystem_Char_Buf_Subsystem_Onchip_SRAM+0xf7003a54>
    3a70:	dac03115 	stw	r11,196(sp)
    3a74:	003f2306 	br	3704 <__alt_mem_VGA_Subsystem_Char_Buf_Subsystem_Onchip_SRAM+0xf7003704>
    3a78:	18c03fcc 	andi	r3,r3,255
    3a7c:	18072b1e 	bne	r3,zero,572c <___vfprintf_internal_r+0x21b0>
    3a80:	94800414 	ori	r18,r18,16
    3a84:	9080080c 	andi	r2,r18,32
    3a88:	10037b26 	beq	r2,zero,4878 <___vfprintf_internal_r+0x12fc>
    3a8c:	d9402d17 	ldw	r5,180(sp)
    3a90:	28800117 	ldw	r2,4(r5)
    3a94:	2cc00017 	ldw	r19,0(r5)
    3a98:	29400204 	addi	r5,r5,8
    3a9c:	d9402d15 	stw	r5,180(sp)
    3aa0:	102d883a 	mov	r22,r2
    3aa4:	10044b16 	blt	r2,zero,4bd4 <___vfprintf_internal_r+0x1658>
    3aa8:	d9402917 	ldw	r5,164(sp)
    3aac:	df002783 	ldbu	fp,158(sp)
    3ab0:	2803bc16 	blt	r5,zero,49a4 <___vfprintf_internal_r+0x1428>
    3ab4:	00ffdfc4 	movi	r3,-129
    3ab8:	9d84b03a 	or	r2,r19,r22
    3abc:	90e4703a 	and	r18,r18,r3
    3ac0:	10017726 	beq	r2,zero,40a0 <___vfprintf_internal_r+0xb24>
    3ac4:	b0038326 	beq	r22,zero,48d4 <___vfprintf_internal_r+0x1358>
    3ac8:	dc402a15 	stw	r17,168(sp)
    3acc:	dc001e04 	addi	r16,sp,120
    3ad0:	b023883a 	mov	r17,r22
    3ad4:	402d883a 	mov	r22,r8
    3ad8:	9809883a 	mov	r4,r19
    3adc:	880b883a 	mov	r5,r17
    3ae0:	01800284 	movi	r6,10
    3ae4:	000f883a 	mov	r7,zero
    3ae8:	0014d8c0 	call	14d8c <__umoddi3>
    3aec:	10800c04 	addi	r2,r2,48
    3af0:	843fffc4 	addi	r16,r16,-1
    3af4:	9809883a 	mov	r4,r19
    3af8:	880b883a 	mov	r5,r17
    3afc:	80800005 	stb	r2,0(r16)
    3b00:	01800284 	movi	r6,10
    3b04:	000f883a 	mov	r7,zero
    3b08:	00148140 	call	14814 <__udivdi3>
    3b0c:	1027883a 	mov	r19,r2
    3b10:	10c4b03a 	or	r2,r2,r3
    3b14:	1823883a 	mov	r17,r3
    3b18:	103fef1e 	bne	r2,zero,3ad8 <__alt_mem_VGA_Subsystem_Char_Buf_Subsystem_Onchip_SRAM+0xf7003ad8>
    3b1c:	d8c02817 	ldw	r3,160(sp)
    3b20:	dc402a17 	ldw	r17,168(sp)
    3b24:	b011883a 	mov	r8,r22
    3b28:	1c07c83a 	sub	r3,r3,r16
    3b2c:	d8c02e15 	stw	r3,184(sp)
    3b30:	00005906 	br	3c98 <___vfprintf_internal_r+0x71c>
    3b34:	18c03fcc 	andi	r3,r3,255
    3b38:	1806fa1e 	bne	r3,zero,5724 <___vfprintf_internal_r+0x21a8>
    3b3c:	9080020c 	andi	r2,r18,8
    3b40:	10048a26 	beq	r2,zero,4d6c <___vfprintf_internal_r+0x17f0>
    3b44:	d8c02d17 	ldw	r3,180(sp)
    3b48:	d9002d17 	ldw	r4,180(sp)
    3b4c:	d9402d17 	ldw	r5,180(sp)
    3b50:	18c00017 	ldw	r3,0(r3)
    3b54:	21000117 	ldw	r4,4(r4)
    3b58:	29400204 	addi	r5,r5,8
    3b5c:	d8c03615 	stw	r3,216(sp)
    3b60:	d9003815 	stw	r4,224(sp)
    3b64:	d9402d15 	stw	r5,180(sp)
    3b68:	d9003617 	ldw	r4,216(sp)
    3b6c:	d9403817 	ldw	r5,224(sp)
    3b70:	da003d15 	stw	r8,244(sp)
    3b74:	04000044 	movi	r16,1
    3b78:	000b21c0 	call	b21c <__fpclassifyd>
    3b7c:	da003d17 	ldw	r8,244(sp)
    3b80:	14041f1e 	bne	r2,r16,4c00 <___vfprintf_internal_r+0x1684>
    3b84:	d9003617 	ldw	r4,216(sp)
    3b88:	d9403817 	ldw	r5,224(sp)
    3b8c:	000d883a 	mov	r6,zero
    3b90:	000f883a 	mov	r7,zero
    3b94:	001696c0 	call	1696c <__ledf2>
    3b98:	da003d17 	ldw	r8,244(sp)
    3b9c:	1005be16 	blt	r2,zero,5298 <___vfprintf_internal_r+0x1d1c>
    3ba0:	df002783 	ldbu	fp,158(sp)
    3ba4:	008011c4 	movi	r2,71
    3ba8:	1445330e 	bge	r2,r17,5078 <___vfprintf_internal_r+0x1afc>
    3bac:	040000b4 	movhi	r16,2
    3bb0:	84313504 	addi	r16,r16,-15148
    3bb4:	00c000c4 	movi	r3,3
    3bb8:	00bfdfc4 	movi	r2,-129
    3bbc:	d8c02a15 	stw	r3,168(sp)
    3bc0:	90a4703a 	and	r18,r18,r2
    3bc4:	d8c02e15 	stw	r3,184(sp)
    3bc8:	d8002915 	stw	zero,164(sp)
    3bcc:	d8003215 	stw	zero,200(sp)
    3bd0:	00003706 	br	3cb0 <___vfprintf_internal_r+0x734>
    3bd4:	94800214 	ori	r18,r18,8
    3bd8:	ac400007 	ldb	r17,0(r21)
    3bdc:	003ec806 	br	3700 <__alt_mem_VGA_Subsystem_Char_Buf_Subsystem_Onchip_SRAM+0xf7003700>
    3be0:	18c03fcc 	andi	r3,r3,255
    3be4:	1806db1e 	bne	r3,zero,5754 <___vfprintf_internal_r+0x21d8>
    3be8:	94800414 	ori	r18,r18,16
    3bec:	9080080c 	andi	r2,r18,32
    3bf0:	1002d826 	beq	r2,zero,4754 <___vfprintf_internal_r+0x11d8>
    3bf4:	d9402d17 	ldw	r5,180(sp)
    3bf8:	d8c02917 	ldw	r3,164(sp)
    3bfc:	d8002785 	stb	zero,158(sp)
    3c00:	28800204 	addi	r2,r5,8
    3c04:	2cc00017 	ldw	r19,0(r5)
    3c08:	2d800117 	ldw	r22,4(r5)
    3c0c:	18048f16 	blt	r3,zero,4e4c <___vfprintf_internal_r+0x18d0>
    3c10:	013fdfc4 	movi	r4,-129
    3c14:	9d86b03a 	or	r3,r19,r22
    3c18:	d8802d15 	stw	r2,180(sp)
    3c1c:	9124703a 	and	r18,r18,r4
    3c20:	1802d91e 	bne	r3,zero,4788 <___vfprintf_internal_r+0x120c>
    3c24:	d8c02917 	ldw	r3,164(sp)
    3c28:	0039883a 	mov	fp,zero
    3c2c:	1805c326 	beq	r3,zero,533c <___vfprintf_internal_r+0x1dc0>
    3c30:	0027883a 	mov	r19,zero
    3c34:	002d883a 	mov	r22,zero
    3c38:	dc001e04 	addi	r16,sp,120
    3c3c:	9806d0fa 	srli	r3,r19,3
    3c40:	b008977a 	slli	r4,r22,29
    3c44:	b02cd0fa 	srli	r22,r22,3
    3c48:	9cc001cc 	andi	r19,r19,7
    3c4c:	98800c04 	addi	r2,r19,48
    3c50:	843fffc4 	addi	r16,r16,-1
    3c54:	20e6b03a 	or	r19,r4,r3
    3c58:	80800005 	stb	r2,0(r16)
    3c5c:	9d86b03a 	or	r3,r19,r22
    3c60:	183ff61e 	bne	r3,zero,3c3c <__alt_mem_VGA_Subsystem_Char_Buf_Subsystem_Onchip_SRAM+0xf7003c3c>
    3c64:	90c0004c 	andi	r3,r18,1
    3c68:	18013b26 	beq	r3,zero,4158 <___vfprintf_internal_r+0xbdc>
    3c6c:	10803fcc 	andi	r2,r2,255
    3c70:	1080201c 	xori	r2,r2,128
    3c74:	10bfe004 	addi	r2,r2,-128
    3c78:	00c00c04 	movi	r3,48
    3c7c:	10c13626 	beq	r2,r3,4158 <___vfprintf_internal_r+0xbdc>
    3c80:	80ffffc5 	stb	r3,-1(r16)
    3c84:	d8c02817 	ldw	r3,160(sp)
    3c88:	80bfffc4 	addi	r2,r16,-1
    3c8c:	1021883a 	mov	r16,r2
    3c90:	1887c83a 	sub	r3,r3,r2
    3c94:	d8c02e15 	stw	r3,184(sp)
    3c98:	d8802e17 	ldw	r2,184(sp)
    3c9c:	d9002917 	ldw	r4,164(sp)
    3ca0:	1100010e 	bge	r2,r4,3ca8 <___vfprintf_internal_r+0x72c>
    3ca4:	2005883a 	mov	r2,r4
    3ca8:	d8802a15 	stw	r2,168(sp)
    3cac:	d8003215 	stw	zero,200(sp)
    3cb0:	e7003fcc 	andi	fp,fp,255
    3cb4:	e700201c 	xori	fp,fp,128
    3cb8:	e73fe004 	addi	fp,fp,-128
    3cbc:	e0000326 	beq	fp,zero,3ccc <___vfprintf_internal_r+0x750>
    3cc0:	d8c02a17 	ldw	r3,168(sp)
    3cc4:	18c00044 	addi	r3,r3,1
    3cc8:	d8c02a15 	stw	r3,168(sp)
    3ccc:	90c0008c 	andi	r3,r18,2
    3cd0:	d8c02b15 	stw	r3,172(sp)
    3cd4:	18000326 	beq	r3,zero,3ce4 <___vfprintf_internal_r+0x768>
    3cd8:	d8c02a17 	ldw	r3,168(sp)
    3cdc:	18c00084 	addi	r3,r3,2
    3ce0:	d8c02a15 	stw	r3,168(sp)
    3ce4:	90c0210c 	andi	r3,r18,132
    3ce8:	d8c03015 	stw	r3,192(sp)
    3cec:	1801a31e 	bne	r3,zero,437c <___vfprintf_internal_r+0xe00>
    3cf0:	d9003117 	ldw	r4,196(sp)
    3cf4:	d8c02a17 	ldw	r3,168(sp)
    3cf8:	20e7c83a 	sub	r19,r4,r3
    3cfc:	04c19f0e 	bge	zero,r19,437c <___vfprintf_internal_r+0xe00>
    3d00:	02400404 	movi	r9,16
    3d04:	d8c02017 	ldw	r3,128(sp)
    3d08:	d8801f17 	ldw	r2,124(sp)
    3d0c:	4cc50d0e 	bge	r9,r19,5144 <___vfprintf_internal_r+0x1bc8>
    3d10:	014000b4 	movhi	r5,2
    3d14:	29714884 	addi	r5,r5,-15070
    3d18:	dc403b15 	stw	r17,236(sp)
    3d1c:	d9403515 	stw	r5,212(sp)
    3d20:	9823883a 	mov	r17,r19
    3d24:	482d883a 	mov	r22,r9
    3d28:	9027883a 	mov	r19,r18
    3d2c:	070001c4 	movi	fp,7
    3d30:	8025883a 	mov	r18,r16
    3d34:	dc002c17 	ldw	r16,176(sp)
    3d38:	00000306 	br	3d48 <___vfprintf_internal_r+0x7cc>
    3d3c:	8c7ffc04 	addi	r17,r17,-16
    3d40:	42000204 	addi	r8,r8,8
    3d44:	b440130e 	bge	r22,r17,3d94 <___vfprintf_internal_r+0x818>
    3d48:	010000b4 	movhi	r4,2
    3d4c:	18c00404 	addi	r3,r3,16
    3d50:	10800044 	addi	r2,r2,1
    3d54:	21314884 	addi	r4,r4,-15070
    3d58:	41000015 	stw	r4,0(r8)
    3d5c:	45800115 	stw	r22,4(r8)
    3d60:	d8c02015 	stw	r3,128(sp)
    3d64:	d8801f15 	stw	r2,124(sp)
    3d68:	e0bff40e 	bge	fp,r2,3d3c <__alt_mem_VGA_Subsystem_Char_Buf_Subsystem_Onchip_SRAM+0xf7003d3c>
    3d6c:	d9801e04 	addi	r6,sp,120
    3d70:	b80b883a 	mov	r5,r23
    3d74:	8009883a 	mov	r4,r16
    3d78:	000fd3c0 	call	fd3c <__sprint_r>
    3d7c:	103f011e 	bne	r2,zero,3984 <__alt_mem_VGA_Subsystem_Char_Buf_Subsystem_Onchip_SRAM+0xf7003984>
    3d80:	8c7ffc04 	addi	r17,r17,-16
    3d84:	d8c02017 	ldw	r3,128(sp)
    3d88:	d8801f17 	ldw	r2,124(sp)
    3d8c:	da000404 	addi	r8,sp,16
    3d90:	b47fed16 	blt	r22,r17,3d48 <__alt_mem_VGA_Subsystem_Char_Buf_Subsystem_Onchip_SRAM+0xf7003d48>
    3d94:	9021883a 	mov	r16,r18
    3d98:	9825883a 	mov	r18,r19
    3d9c:	8827883a 	mov	r19,r17
    3da0:	dc403b17 	ldw	r17,236(sp)
    3da4:	d9403517 	ldw	r5,212(sp)
    3da8:	98c7883a 	add	r3,r19,r3
    3dac:	10800044 	addi	r2,r2,1
    3db0:	41400015 	stw	r5,0(r8)
    3db4:	44c00115 	stw	r19,4(r8)
    3db8:	d8c02015 	stw	r3,128(sp)
    3dbc:	d8801f15 	stw	r2,124(sp)
    3dc0:	010001c4 	movi	r4,7
    3dc4:	2082a316 	blt	r4,r2,4854 <___vfprintf_internal_r+0x12d8>
    3dc8:	df002787 	ldb	fp,158(sp)
    3dcc:	42000204 	addi	r8,r8,8
    3dd0:	e0000c26 	beq	fp,zero,3e04 <___vfprintf_internal_r+0x888>
    3dd4:	d8801f17 	ldw	r2,124(sp)
    3dd8:	d9002784 	addi	r4,sp,158
    3ddc:	18c00044 	addi	r3,r3,1
    3de0:	10800044 	addi	r2,r2,1
    3de4:	41000015 	stw	r4,0(r8)
    3de8:	01000044 	movi	r4,1
    3dec:	41000115 	stw	r4,4(r8)
    3df0:	d8c02015 	stw	r3,128(sp)
    3df4:	d8801f15 	stw	r2,124(sp)
    3df8:	010001c4 	movi	r4,7
    3dfc:	20823c16 	blt	r4,r2,46f0 <___vfprintf_internal_r+0x1174>
    3e00:	42000204 	addi	r8,r8,8
    3e04:	d8802b17 	ldw	r2,172(sp)
    3e08:	10000c26 	beq	r2,zero,3e3c <___vfprintf_internal_r+0x8c0>
    3e0c:	d8801f17 	ldw	r2,124(sp)
    3e10:	d9002704 	addi	r4,sp,156
    3e14:	18c00084 	addi	r3,r3,2
    3e18:	10800044 	addi	r2,r2,1
    3e1c:	41000015 	stw	r4,0(r8)
    3e20:	01000084 	movi	r4,2
    3e24:	41000115 	stw	r4,4(r8)
    3e28:	d8c02015 	stw	r3,128(sp)
    3e2c:	d8801f15 	stw	r2,124(sp)
    3e30:	010001c4 	movi	r4,7
    3e34:	20823616 	blt	r4,r2,4710 <___vfprintf_internal_r+0x1194>
    3e38:	42000204 	addi	r8,r8,8
    3e3c:	d9003017 	ldw	r4,192(sp)
    3e40:	00802004 	movi	r2,128
    3e44:	20819926 	beq	r4,r2,44ac <___vfprintf_internal_r+0xf30>
    3e48:	d9402917 	ldw	r5,164(sp)
    3e4c:	d8802e17 	ldw	r2,184(sp)
    3e50:	28adc83a 	sub	r22,r5,r2
    3e54:	0580310e 	bge	zero,r22,3f1c <___vfprintf_internal_r+0x9a0>
    3e58:	07000404 	movi	fp,16
    3e5c:	d8801f17 	ldw	r2,124(sp)
    3e60:	e584140e 	bge	fp,r22,4eb4 <___vfprintf_internal_r+0x1938>
    3e64:	014000b4 	movhi	r5,2
    3e68:	29714484 	addi	r5,r5,-15086
    3e6c:	dc402915 	stw	r17,164(sp)
    3e70:	d9402b15 	stw	r5,172(sp)
    3e74:	b023883a 	mov	r17,r22
    3e78:	04c001c4 	movi	r19,7
    3e7c:	a82d883a 	mov	r22,r21
    3e80:	902b883a 	mov	r21,r18
    3e84:	8025883a 	mov	r18,r16
    3e88:	dc002c17 	ldw	r16,176(sp)
    3e8c:	00000306 	br	3e9c <___vfprintf_internal_r+0x920>
    3e90:	8c7ffc04 	addi	r17,r17,-16
    3e94:	42000204 	addi	r8,r8,8
    3e98:	e440110e 	bge	fp,r17,3ee0 <___vfprintf_internal_r+0x964>
    3e9c:	18c00404 	addi	r3,r3,16
    3ea0:	10800044 	addi	r2,r2,1
    3ea4:	45000015 	stw	r20,0(r8)
    3ea8:	47000115 	stw	fp,4(r8)
    3eac:	d8c02015 	stw	r3,128(sp)
    3eb0:	d8801f15 	stw	r2,124(sp)
    3eb4:	98bff60e 	bge	r19,r2,3e90 <__alt_mem_VGA_Subsystem_Char_Buf_Subsystem_Onchip_SRAM+0xf7003e90>
    3eb8:	d9801e04 	addi	r6,sp,120
    3ebc:	b80b883a 	mov	r5,r23
    3ec0:	8009883a 	mov	r4,r16
    3ec4:	000fd3c0 	call	fd3c <__sprint_r>
    3ec8:	103eae1e 	bne	r2,zero,3984 <__alt_mem_VGA_Subsystem_Char_Buf_Subsystem_Onchip_SRAM+0xf7003984>
    3ecc:	8c7ffc04 	addi	r17,r17,-16
    3ed0:	d8c02017 	ldw	r3,128(sp)
    3ed4:	d8801f17 	ldw	r2,124(sp)
    3ed8:	da000404 	addi	r8,sp,16
    3edc:	e47fef16 	blt	fp,r17,3e9c <__alt_mem_VGA_Subsystem_Char_Buf_Subsystem_Onchip_SRAM+0xf7003e9c>
    3ee0:	9021883a 	mov	r16,r18
    3ee4:	a825883a 	mov	r18,r21
    3ee8:	b02b883a 	mov	r21,r22
    3eec:	882d883a 	mov	r22,r17
    3ef0:	dc402917 	ldw	r17,164(sp)
    3ef4:	d9002b17 	ldw	r4,172(sp)
    3ef8:	1d87883a 	add	r3,r3,r22
    3efc:	10800044 	addi	r2,r2,1
    3f00:	41000015 	stw	r4,0(r8)
    3f04:	45800115 	stw	r22,4(r8)
    3f08:	d8c02015 	stw	r3,128(sp)
    3f0c:	d8801f15 	stw	r2,124(sp)
    3f10:	010001c4 	movi	r4,7
    3f14:	2081ee16 	blt	r4,r2,46d0 <___vfprintf_internal_r+0x1154>
    3f18:	42000204 	addi	r8,r8,8
    3f1c:	9080400c 	andi	r2,r18,256
    3f20:	1001181e 	bne	r2,zero,4384 <___vfprintf_internal_r+0xe08>
    3f24:	d9402e17 	ldw	r5,184(sp)
    3f28:	d8801f17 	ldw	r2,124(sp)
    3f2c:	44000015 	stw	r16,0(r8)
    3f30:	1947883a 	add	r3,r3,r5
    3f34:	10800044 	addi	r2,r2,1
    3f38:	41400115 	stw	r5,4(r8)
    3f3c:	d8c02015 	stw	r3,128(sp)
    3f40:	d8801f15 	stw	r2,124(sp)
    3f44:	010001c4 	movi	r4,7
    3f48:	2081d316 	blt	r4,r2,4698 <___vfprintf_internal_r+0x111c>
    3f4c:	42000204 	addi	r8,r8,8
    3f50:	9480010c 	andi	r18,r18,4
    3f54:	90003226 	beq	r18,zero,4020 <___vfprintf_internal_r+0xaa4>
    3f58:	d9403117 	ldw	r5,196(sp)
    3f5c:	d8802a17 	ldw	r2,168(sp)
    3f60:	28a1c83a 	sub	r16,r5,r2
    3f64:	04002e0e 	bge	zero,r16,4020 <___vfprintf_internal_r+0xaa4>
    3f68:	04400404 	movi	r17,16
    3f6c:	d8801f17 	ldw	r2,124(sp)
    3f70:	8c04a20e 	bge	r17,r16,51fc <___vfprintf_internal_r+0x1c80>
    3f74:	014000b4 	movhi	r5,2
    3f78:	29714884 	addi	r5,r5,-15070
    3f7c:	d9403515 	stw	r5,212(sp)
    3f80:	048001c4 	movi	r18,7
    3f84:	dcc02c17 	ldw	r19,176(sp)
    3f88:	00000306 	br	3f98 <___vfprintf_internal_r+0xa1c>
    3f8c:	843ffc04 	addi	r16,r16,-16
    3f90:	42000204 	addi	r8,r8,8
    3f94:	8c00130e 	bge	r17,r16,3fe4 <___vfprintf_internal_r+0xa68>
    3f98:	010000b4 	movhi	r4,2
    3f9c:	18c00404 	addi	r3,r3,16
    3fa0:	10800044 	addi	r2,r2,1
    3fa4:	21314884 	addi	r4,r4,-15070
    3fa8:	41000015 	stw	r4,0(r8)
    3fac:	44400115 	stw	r17,4(r8)
    3fb0:	d8c02015 	stw	r3,128(sp)
    3fb4:	d8801f15 	stw	r2,124(sp)
    3fb8:	90bff40e 	bge	r18,r2,3f8c <__alt_mem_VGA_Subsystem_Char_Buf_Subsystem_Onchip_SRAM+0xf7003f8c>
    3fbc:	d9801e04 	addi	r6,sp,120
    3fc0:	b80b883a 	mov	r5,r23
    3fc4:	9809883a 	mov	r4,r19
    3fc8:	000fd3c0 	call	fd3c <__sprint_r>
    3fcc:	103e6d1e 	bne	r2,zero,3984 <__alt_mem_VGA_Subsystem_Char_Buf_Subsystem_Onchip_SRAM+0xf7003984>
    3fd0:	843ffc04 	addi	r16,r16,-16
    3fd4:	d8c02017 	ldw	r3,128(sp)
    3fd8:	d8801f17 	ldw	r2,124(sp)
    3fdc:	da000404 	addi	r8,sp,16
    3fe0:	8c3fed16 	blt	r17,r16,3f98 <__alt_mem_VGA_Subsystem_Char_Buf_Subsystem_Onchip_SRAM+0xf7003f98>
    3fe4:	d9403517 	ldw	r5,212(sp)
    3fe8:	1c07883a 	add	r3,r3,r16
    3fec:	10800044 	addi	r2,r2,1
    3ff0:	41400015 	stw	r5,0(r8)
    3ff4:	44000115 	stw	r16,4(r8)
    3ff8:	d8c02015 	stw	r3,128(sp)
    3ffc:	d8801f15 	stw	r2,124(sp)
    4000:	010001c4 	movi	r4,7
    4004:	2080060e 	bge	r4,r2,4020 <___vfprintf_internal_r+0xaa4>
    4008:	d9002c17 	ldw	r4,176(sp)
    400c:	d9801e04 	addi	r6,sp,120
    4010:	b80b883a 	mov	r5,r23
    4014:	000fd3c0 	call	fd3c <__sprint_r>
    4018:	103e5a1e 	bne	r2,zero,3984 <__alt_mem_VGA_Subsystem_Char_Buf_Subsystem_Onchip_SRAM+0xf7003984>
    401c:	d8c02017 	ldw	r3,128(sp)
    4020:	d8803117 	ldw	r2,196(sp)
    4024:	d9002a17 	ldw	r4,168(sp)
    4028:	1100010e 	bge	r2,r4,4030 <___vfprintf_internal_r+0xab4>
    402c:	2005883a 	mov	r2,r4
    4030:	d9402f17 	ldw	r5,188(sp)
    4034:	288b883a 	add	r5,r5,r2
    4038:	d9402f15 	stw	r5,188(sp)
    403c:	18019e1e 	bne	r3,zero,46b8 <___vfprintf_internal_r+0x113c>
    4040:	a8800007 	ldb	r2,0(r21)
    4044:	d8001f15 	stw	zero,124(sp)
    4048:	da000404 	addi	r8,sp,16
    404c:	103d851e 	bne	r2,zero,3664 <__alt_mem_VGA_Subsystem_Char_Buf_Subsystem_Onchip_SRAM+0xf7003664>
    4050:	a821883a 	mov	r16,r21
    4054:	003d9b06 	br	36c4 <__alt_mem_VGA_Subsystem_Char_Buf_Subsystem_Onchip_SRAM+0xf70036c4>
    4058:	18c03fcc 	andi	r3,r3,255
    405c:	1805c11e 	bne	r3,zero,5764 <___vfprintf_internal_r+0x21e8>
    4060:	94800414 	ori	r18,r18,16
    4064:	9080080c 	andi	r2,r18,32
    4068:	10020c26 	beq	r2,zero,489c <___vfprintf_internal_r+0x1320>
    406c:	d8802d17 	ldw	r2,180(sp)
    4070:	d9002917 	ldw	r4,164(sp)
    4074:	d8002785 	stb	zero,158(sp)
    4078:	10c00204 	addi	r3,r2,8
    407c:	14c00017 	ldw	r19,0(r2)
    4080:	15800117 	ldw	r22,4(r2)
    4084:	20040f16 	blt	r4,zero,50c4 <___vfprintf_internal_r+0x1b48>
    4088:	013fdfc4 	movi	r4,-129
    408c:	9d84b03a 	or	r2,r19,r22
    4090:	d8c02d15 	stw	r3,180(sp)
    4094:	9124703a 	and	r18,r18,r4
    4098:	0039883a 	mov	fp,zero
    409c:	103e891e 	bne	r2,zero,3ac4 <__alt_mem_VGA_Subsystem_Char_Buf_Subsystem_Onchip_SRAM+0xf7003ac4>
    40a0:	d9002917 	ldw	r4,164(sp)
    40a4:	2002c11e 	bne	r4,zero,4bac <___vfprintf_internal_r+0x1630>
    40a8:	d8002915 	stw	zero,164(sp)
    40ac:	d8002e15 	stw	zero,184(sp)
    40b0:	dc001e04 	addi	r16,sp,120
    40b4:	003ef806 	br	3c98 <__alt_mem_VGA_Subsystem_Char_Buf_Subsystem_Onchip_SRAM+0xf7003c98>
    40b8:	18c03fcc 	andi	r3,r3,255
    40bc:	18059d1e 	bne	r3,zero,5734 <___vfprintf_internal_r+0x21b8>
    40c0:	014000b4 	movhi	r5,2
    40c4:	29713804 	addi	r5,r5,-15136
    40c8:	d9403915 	stw	r5,228(sp)
    40cc:	9080080c 	andi	r2,r18,32
    40d0:	10005226 	beq	r2,zero,421c <___vfprintf_internal_r+0xca0>
    40d4:	d8802d17 	ldw	r2,180(sp)
    40d8:	14c00017 	ldw	r19,0(r2)
    40dc:	15800117 	ldw	r22,4(r2)
    40e0:	10800204 	addi	r2,r2,8
    40e4:	d8802d15 	stw	r2,180(sp)
    40e8:	9080004c 	andi	r2,r18,1
    40ec:	10019026 	beq	r2,zero,4730 <___vfprintf_internal_r+0x11b4>
    40f0:	9d84b03a 	or	r2,r19,r22
    40f4:	10036926 	beq	r2,zero,4e9c <___vfprintf_internal_r+0x1920>
    40f8:	d8c02917 	ldw	r3,164(sp)
    40fc:	00800c04 	movi	r2,48
    4100:	d8802705 	stb	r2,156(sp)
    4104:	dc402745 	stb	r17,157(sp)
    4108:	d8002785 	stb	zero,158(sp)
    410c:	90800094 	ori	r2,r18,2
    4110:	18045d16 	blt	r3,zero,5288 <___vfprintf_internal_r+0x1d0c>
    4114:	00bfdfc4 	movi	r2,-129
    4118:	90a4703a 	and	r18,r18,r2
    411c:	94800094 	ori	r18,r18,2
    4120:	0039883a 	mov	fp,zero
    4124:	d9003917 	ldw	r4,228(sp)
    4128:	dc001e04 	addi	r16,sp,120
    412c:	988003cc 	andi	r2,r19,15
    4130:	b006973a 	slli	r3,r22,28
    4134:	2085883a 	add	r2,r4,r2
    4138:	9826d13a 	srli	r19,r19,4
    413c:	10800003 	ldbu	r2,0(r2)
    4140:	b02cd13a 	srli	r22,r22,4
    4144:	843fffc4 	addi	r16,r16,-1
    4148:	1ce6b03a 	or	r19,r3,r19
    414c:	80800005 	stb	r2,0(r16)
    4150:	9d84b03a 	or	r2,r19,r22
    4154:	103ff51e 	bne	r2,zero,412c <__alt_mem_VGA_Subsystem_Char_Buf_Subsystem_Onchip_SRAM+0xf700412c>
    4158:	d8c02817 	ldw	r3,160(sp)
    415c:	1c07c83a 	sub	r3,r3,r16
    4160:	d8c02e15 	stw	r3,184(sp)
    4164:	003ecc06 	br	3c98 <__alt_mem_VGA_Subsystem_Char_Buf_Subsystem_Onchip_SRAM+0xf7003c98>
    4168:	18c03fcc 	andi	r3,r3,255
    416c:	183e9f26 	beq	r3,zero,3bec <__alt_mem_VGA_Subsystem_Char_Buf_Subsystem_Onchip_SRAM+0xf7003bec>
    4170:	d9c02785 	stb	r7,158(sp)
    4174:	003e9d06 	br	3bec <__alt_mem_VGA_Subsystem_Char_Buf_Subsystem_Onchip_SRAM+0xf7003bec>
    4178:	00c00044 	movi	r3,1
    417c:	01c00ac4 	movi	r7,43
    4180:	ac400007 	ldb	r17,0(r21)
    4184:	003d5e06 	br	3700 <__alt_mem_VGA_Subsystem_Char_Buf_Subsystem_Onchip_SRAM+0xf7003700>
    4188:	94800814 	ori	r18,r18,32
    418c:	ac400007 	ldb	r17,0(r21)
    4190:	003d5b06 	br	3700 <__alt_mem_VGA_Subsystem_Char_Buf_Subsystem_Onchip_SRAM+0xf7003700>
    4194:	d8c02d17 	ldw	r3,180(sp)
    4198:	d8002785 	stb	zero,158(sp)
    419c:	1c000017 	ldw	r16,0(r3)
    41a0:	1cc00104 	addi	r19,r3,4
    41a4:	80041926 	beq	r16,zero,520c <___vfprintf_internal_r+0x1c90>
    41a8:	d9002917 	ldw	r4,164(sp)
    41ac:	2003d016 	blt	r4,zero,50f0 <___vfprintf_internal_r+0x1b74>
    41b0:	200d883a 	mov	r6,r4
    41b4:	000b883a 	mov	r5,zero
    41b8:	8009883a 	mov	r4,r16
    41bc:	da003d15 	stw	r8,244(sp)
    41c0:	0009e040 	call	9e04 <memchr>
    41c4:	da003d17 	ldw	r8,244(sp)
    41c8:	10045426 	beq	r2,zero,531c <___vfprintf_internal_r+0x1da0>
    41cc:	1405c83a 	sub	r2,r2,r16
    41d0:	d8802e15 	stw	r2,184(sp)
    41d4:	1003cc16 	blt	r2,zero,5108 <___vfprintf_internal_r+0x1b8c>
    41d8:	df002783 	ldbu	fp,158(sp)
    41dc:	d8802a15 	stw	r2,168(sp)
    41e0:	dcc02d15 	stw	r19,180(sp)
    41e4:	d8002915 	stw	zero,164(sp)
    41e8:	d8003215 	stw	zero,200(sp)
    41ec:	003eb006 	br	3cb0 <__alt_mem_VGA_Subsystem_Char_Buf_Subsystem_Onchip_SRAM+0xf7003cb0>
    41f0:	18c03fcc 	andi	r3,r3,255
    41f4:	183f9b26 	beq	r3,zero,4064 <__alt_mem_VGA_Subsystem_Char_Buf_Subsystem_Onchip_SRAM+0xf7004064>
    41f8:	d9c02785 	stb	r7,158(sp)
    41fc:	003f9906 	br	4064 <__alt_mem_VGA_Subsystem_Char_Buf_Subsystem_Onchip_SRAM+0xf7004064>
    4200:	18c03fcc 	andi	r3,r3,255
    4204:	1805551e 	bne	r3,zero,575c <___vfprintf_internal_r+0x21e0>
    4208:	014000b4 	movhi	r5,2
    420c:	29713d04 	addi	r5,r5,-15116
    4210:	d9403915 	stw	r5,228(sp)
    4214:	9080080c 	andi	r2,r18,32
    4218:	103fae1e 	bne	r2,zero,40d4 <__alt_mem_VGA_Subsystem_Char_Buf_Subsystem_Onchip_SRAM+0xf70040d4>
    421c:	9080040c 	andi	r2,r18,16
    4220:	1002de26 	beq	r2,zero,4d9c <___vfprintf_internal_r+0x1820>
    4224:	d8c02d17 	ldw	r3,180(sp)
    4228:	002d883a 	mov	r22,zero
    422c:	1cc00017 	ldw	r19,0(r3)
    4230:	18c00104 	addi	r3,r3,4
    4234:	d8c02d15 	stw	r3,180(sp)
    4238:	003fab06 	br	40e8 <__alt_mem_VGA_Subsystem_Char_Buf_Subsystem_Onchip_SRAM+0xf70040e8>
    423c:	38803fcc 	andi	r2,r7,255
    4240:	1080201c 	xori	r2,r2,128
    4244:	10bfe004 	addi	r2,r2,-128
    4248:	1002d21e 	bne	r2,zero,4d94 <___vfprintf_internal_r+0x1818>
    424c:	00c00044 	movi	r3,1
    4250:	01c00804 	movi	r7,32
    4254:	ac400007 	ldb	r17,0(r21)
    4258:	003d2906 	br	3700 <__alt_mem_VGA_Subsystem_Char_Buf_Subsystem_Onchip_SRAM+0xf7003700>
    425c:	94800054 	ori	r18,r18,1
    4260:	ac400007 	ldb	r17,0(r21)
    4264:	003d2606 	br	3700 <__alt_mem_VGA_Subsystem_Char_Buf_Subsystem_Onchip_SRAM+0xf7003700>
    4268:	18c03fcc 	andi	r3,r3,255
    426c:	183e0526 	beq	r3,zero,3a84 <__alt_mem_VGA_Subsystem_Char_Buf_Subsystem_Onchip_SRAM+0xf7003a84>
    4270:	d9c02785 	stb	r7,158(sp)
    4274:	003e0306 	br	3a84 <__alt_mem_VGA_Subsystem_Char_Buf_Subsystem_Onchip_SRAM+0xf7003a84>
    4278:	94801014 	ori	r18,r18,64
    427c:	ac400007 	ldb	r17,0(r21)
    4280:	003d1f06 	br	3700 <__alt_mem_VGA_Subsystem_Char_Buf_Subsystem_Onchip_SRAM+0xf7003700>
    4284:	ac400007 	ldb	r17,0(r21)
    4288:	8a438726 	beq	r17,r9,50a8 <___vfprintf_internal_r+0x1b2c>
    428c:	94800414 	ori	r18,r18,16
    4290:	003d1b06 	br	3700 <__alt_mem_VGA_Subsystem_Char_Buf_Subsystem_Onchip_SRAM+0xf7003700>
    4294:	18c03fcc 	andi	r3,r3,255
    4298:	1805341e 	bne	r3,zero,576c <___vfprintf_internal_r+0x21f0>
    429c:	9080080c 	andi	r2,r18,32
    42a0:	1002cd26 	beq	r2,zero,4dd8 <___vfprintf_internal_r+0x185c>
    42a4:	d9402d17 	ldw	r5,180(sp)
    42a8:	d9002f17 	ldw	r4,188(sp)
    42ac:	28800017 	ldw	r2,0(r5)
    42b0:	2007d7fa 	srai	r3,r4,31
    42b4:	29400104 	addi	r5,r5,4
    42b8:	d9402d15 	stw	r5,180(sp)
    42bc:	11000015 	stw	r4,0(r2)
    42c0:	10c00115 	stw	r3,4(r2)
    42c4:	003ce506 	br	365c <__alt_mem_VGA_Subsystem_Char_Buf_Subsystem_Onchip_SRAM+0xf700365c>
    42c8:	d8c02d17 	ldw	r3,180(sp)
    42cc:	d9002d17 	ldw	r4,180(sp)
    42d0:	d8002785 	stb	zero,158(sp)
    42d4:	18800017 	ldw	r2,0(r3)
    42d8:	21000104 	addi	r4,r4,4
    42dc:	00c00044 	movi	r3,1
    42e0:	d8c02a15 	stw	r3,168(sp)
    42e4:	d8801405 	stb	r2,80(sp)
    42e8:	d9002d15 	stw	r4,180(sp)
    42ec:	d8c02e15 	stw	r3,184(sp)
    42f0:	d8002915 	stw	zero,164(sp)
    42f4:	d8003215 	stw	zero,200(sp)
    42f8:	dc001404 	addi	r16,sp,80
    42fc:	0039883a 	mov	fp,zero
    4300:	003e7206 	br	3ccc <__alt_mem_VGA_Subsystem_Char_Buf_Subsystem_Onchip_SRAM+0xf7003ccc>
    4304:	010000b4 	movhi	r4,2
    4308:	21313d04 	addi	r4,r4,-15116
    430c:	0039883a 	mov	fp,zero
    4310:	d9003915 	stw	r4,228(sp)
    4314:	04401e04 	movi	r17,120
    4318:	003f8206 	br	4124 <__alt_mem_VGA_Subsystem_Char_Buf_Subsystem_Onchip_SRAM+0xf7004124>
    431c:	18c03fcc 	andi	r3,r3,255
    4320:	1805061e 	bne	r3,zero,573c <___vfprintf_internal_r+0x21c0>
    4324:	883d9126 	beq	r17,zero,396c <__alt_mem_VGA_Subsystem_Char_Buf_Subsystem_Onchip_SRAM+0xf700396c>
    4328:	00c00044 	movi	r3,1
    432c:	d8c02a15 	stw	r3,168(sp)
    4330:	dc401405 	stb	r17,80(sp)
    4334:	d8002785 	stb	zero,158(sp)
    4338:	003fec06 	br	42ec <__alt_mem_VGA_Subsystem_Char_Buf_Subsystem_Onchip_SRAM+0xf70042ec>
    433c:	014000b4 	movhi	r5,2
    4340:	29713d04 	addi	r5,r5,-15116
    4344:	d9403915 	stw	r5,228(sp)
    4348:	d8c02d15 	stw	r3,180(sp)
    434c:	1025883a 	mov	r18,r2
    4350:	04401e04 	movi	r17,120
    4354:	9d84b03a 	or	r2,r19,r22
    4358:	1000fc1e 	bne	r2,zero,474c <___vfprintf_internal_r+0x11d0>
    435c:	0039883a 	mov	fp,zero
    4360:	00800084 	movi	r2,2
    4364:	10803fcc 	andi	r2,r2,255
    4368:	00c00044 	movi	r3,1
    436c:	10c20f26 	beq	r2,r3,4bac <___vfprintf_internal_r+0x1630>
    4370:	00c00084 	movi	r3,2
    4374:	10fd6326 	beq	r2,r3,3904 <__alt_mem_VGA_Subsystem_Char_Buf_Subsystem_Onchip_SRAM+0xf7003904>
    4378:	003e2d06 	br	3c30 <__alt_mem_VGA_Subsystem_Char_Buf_Subsystem_Onchip_SRAM+0xf7003c30>
    437c:	d8c02017 	ldw	r3,128(sp)
    4380:	003e9306 	br	3dd0 <__alt_mem_VGA_Subsystem_Char_Buf_Subsystem_Onchip_SRAM+0xf7003dd0>
    4384:	00801944 	movi	r2,101
    4388:	14407e0e 	bge	r2,r17,4584 <___vfprintf_internal_r+0x1008>
    438c:	d9003617 	ldw	r4,216(sp)
    4390:	d9403817 	ldw	r5,224(sp)
    4394:	000d883a 	mov	r6,zero
    4398:	000f883a 	mov	r7,zero
    439c:	d8c03c15 	stw	r3,240(sp)
    43a0:	da003d15 	stw	r8,244(sp)
    43a4:	00168080 	call	16808 <__eqdf2>
    43a8:	d8c03c17 	ldw	r3,240(sp)
    43ac:	da003d17 	ldw	r8,244(sp)
    43b0:	1000f71e 	bne	r2,zero,4790 <___vfprintf_internal_r+0x1214>
    43b4:	d8801f17 	ldw	r2,124(sp)
    43b8:	010000b4 	movhi	r4,2
    43bc:	21314404 	addi	r4,r4,-15088
    43c0:	18c00044 	addi	r3,r3,1
    43c4:	10800044 	addi	r2,r2,1
    43c8:	41000015 	stw	r4,0(r8)
    43cc:	01000044 	movi	r4,1
    43d0:	41000115 	stw	r4,4(r8)
    43d4:	d8c02015 	stw	r3,128(sp)
    43d8:	d8801f15 	stw	r2,124(sp)
    43dc:	010001c4 	movi	r4,7
    43e0:	2082b816 	blt	r4,r2,4ec4 <___vfprintf_internal_r+0x1948>
    43e4:	42000204 	addi	r8,r8,8
    43e8:	d8802617 	ldw	r2,152(sp)
    43ec:	d9403317 	ldw	r5,204(sp)
    43f0:	11400216 	blt	r2,r5,43fc <___vfprintf_internal_r+0xe80>
    43f4:	9080004c 	andi	r2,r18,1
    43f8:	103ed526 	beq	r2,zero,3f50 <__alt_mem_VGA_Subsystem_Char_Buf_Subsystem_Onchip_SRAM+0xf7003f50>
    43fc:	d8803717 	ldw	r2,220(sp)
    4400:	d9003417 	ldw	r4,208(sp)
    4404:	d9403717 	ldw	r5,220(sp)
    4408:	1887883a 	add	r3,r3,r2
    440c:	d8801f17 	ldw	r2,124(sp)
    4410:	41000015 	stw	r4,0(r8)
    4414:	41400115 	stw	r5,4(r8)
    4418:	10800044 	addi	r2,r2,1
    441c:	d8c02015 	stw	r3,128(sp)
    4420:	d8801f15 	stw	r2,124(sp)
    4424:	010001c4 	movi	r4,7
    4428:	20832916 	blt	r4,r2,50d0 <___vfprintf_internal_r+0x1b54>
    442c:	42000204 	addi	r8,r8,8
    4430:	d8803317 	ldw	r2,204(sp)
    4434:	143fffc4 	addi	r16,r2,-1
    4438:	043ec50e 	bge	zero,r16,3f50 <__alt_mem_VGA_Subsystem_Char_Buf_Subsystem_Onchip_SRAM+0xf7003f50>
    443c:	04400404 	movi	r17,16
    4440:	d8801f17 	ldw	r2,124(sp)
    4444:	8c00880e 	bge	r17,r16,4668 <___vfprintf_internal_r+0x10ec>
    4448:	014000b4 	movhi	r5,2
    444c:	29714484 	addi	r5,r5,-15086
    4450:	d9402b15 	stw	r5,172(sp)
    4454:	058001c4 	movi	r22,7
    4458:	dcc02c17 	ldw	r19,176(sp)
    445c:	00000306 	br	446c <___vfprintf_internal_r+0xef0>
    4460:	42000204 	addi	r8,r8,8
    4464:	843ffc04 	addi	r16,r16,-16
    4468:	8c00820e 	bge	r17,r16,4674 <___vfprintf_internal_r+0x10f8>
    446c:	18c00404 	addi	r3,r3,16
    4470:	10800044 	addi	r2,r2,1
    4474:	45000015 	stw	r20,0(r8)
    4478:	44400115 	stw	r17,4(r8)
    447c:	d8c02015 	stw	r3,128(sp)
    4480:	d8801f15 	stw	r2,124(sp)
    4484:	b0bff60e 	bge	r22,r2,4460 <__alt_mem_VGA_Subsystem_Char_Buf_Subsystem_Onchip_SRAM+0xf7004460>
    4488:	d9801e04 	addi	r6,sp,120
    448c:	b80b883a 	mov	r5,r23
    4490:	9809883a 	mov	r4,r19
    4494:	000fd3c0 	call	fd3c <__sprint_r>
    4498:	103d3a1e 	bne	r2,zero,3984 <__alt_mem_VGA_Subsystem_Char_Buf_Subsystem_Onchip_SRAM+0xf7003984>
    449c:	d8c02017 	ldw	r3,128(sp)
    44a0:	d8801f17 	ldw	r2,124(sp)
    44a4:	da000404 	addi	r8,sp,16
    44a8:	003fee06 	br	4464 <__alt_mem_VGA_Subsystem_Char_Buf_Subsystem_Onchip_SRAM+0xf7004464>
    44ac:	d9403117 	ldw	r5,196(sp)
    44b0:	d8802a17 	ldw	r2,168(sp)
    44b4:	28adc83a 	sub	r22,r5,r2
    44b8:	05be630e 	bge	zero,r22,3e48 <__alt_mem_VGA_Subsystem_Char_Buf_Subsystem_Onchip_SRAM+0xf7003e48>
    44bc:	07000404 	movi	fp,16
    44c0:	d8801f17 	ldw	r2,124(sp)
    44c4:	e5838f0e 	bge	fp,r22,5304 <___vfprintf_internal_r+0x1d88>
    44c8:	014000b4 	movhi	r5,2
    44cc:	29714484 	addi	r5,r5,-15086
    44d0:	dc403015 	stw	r17,192(sp)
    44d4:	d9402b15 	stw	r5,172(sp)
    44d8:	b023883a 	mov	r17,r22
    44dc:	04c001c4 	movi	r19,7
    44e0:	a82d883a 	mov	r22,r21
    44e4:	902b883a 	mov	r21,r18
    44e8:	8025883a 	mov	r18,r16
    44ec:	dc002c17 	ldw	r16,176(sp)
    44f0:	00000306 	br	4500 <___vfprintf_internal_r+0xf84>
    44f4:	8c7ffc04 	addi	r17,r17,-16
    44f8:	42000204 	addi	r8,r8,8
    44fc:	e440110e 	bge	fp,r17,4544 <___vfprintf_internal_r+0xfc8>
    4500:	18c00404 	addi	r3,r3,16
    4504:	10800044 	addi	r2,r2,1
    4508:	45000015 	stw	r20,0(r8)
    450c:	47000115 	stw	fp,4(r8)
    4510:	d8c02015 	stw	r3,128(sp)
    4514:	d8801f15 	stw	r2,124(sp)
    4518:	98bff60e 	bge	r19,r2,44f4 <__alt_mem_VGA_Subsystem_Char_Buf_Subsystem_Onchip_SRAM+0xf70044f4>
    451c:	d9801e04 	addi	r6,sp,120
    4520:	b80b883a 	mov	r5,r23
    4524:	8009883a 	mov	r4,r16
    4528:	000fd3c0 	call	fd3c <__sprint_r>
    452c:	103d151e 	bne	r2,zero,3984 <__alt_mem_VGA_Subsystem_Char_Buf_Subsystem_Onchip_SRAM+0xf7003984>
    4530:	8c7ffc04 	addi	r17,r17,-16
    4534:	d8c02017 	ldw	r3,128(sp)
    4538:	d8801f17 	ldw	r2,124(sp)
    453c:	da000404 	addi	r8,sp,16
    4540:	e47fef16 	blt	fp,r17,4500 <__alt_mem_VGA_Subsystem_Char_Buf_Subsystem_Onchip_SRAM+0xf7004500>
    4544:	9021883a 	mov	r16,r18
    4548:	a825883a 	mov	r18,r21
    454c:	b02b883a 	mov	r21,r22
    4550:	882d883a 	mov	r22,r17
    4554:	dc403017 	ldw	r17,192(sp)
    4558:	d9002b17 	ldw	r4,172(sp)
    455c:	1d87883a 	add	r3,r3,r22
    4560:	10800044 	addi	r2,r2,1
    4564:	41000015 	stw	r4,0(r8)
    4568:	45800115 	stw	r22,4(r8)
    456c:	d8c02015 	stw	r3,128(sp)
    4570:	d8801f15 	stw	r2,124(sp)
    4574:	010001c4 	movi	r4,7
    4578:	20818e16 	blt	r4,r2,4bb4 <___vfprintf_internal_r+0x1638>
    457c:	42000204 	addi	r8,r8,8
    4580:	003e3106 	br	3e48 <__alt_mem_VGA_Subsystem_Char_Buf_Subsystem_Onchip_SRAM+0xf7003e48>
    4584:	d9403317 	ldw	r5,204(sp)
    4588:	00800044 	movi	r2,1
    458c:	18c00044 	addi	r3,r3,1
    4590:	1141530e 	bge	r2,r5,4ae0 <___vfprintf_internal_r+0x1564>
    4594:	dc401f17 	ldw	r17,124(sp)
    4598:	00800044 	movi	r2,1
    459c:	40800115 	stw	r2,4(r8)
    45a0:	8c400044 	addi	r17,r17,1
    45a4:	44000015 	stw	r16,0(r8)
    45a8:	d8c02015 	stw	r3,128(sp)
    45ac:	dc401f15 	stw	r17,124(sp)
    45b0:	008001c4 	movi	r2,7
    45b4:	14416b16 	blt	r2,r17,4b64 <___vfprintf_internal_r+0x15e8>
    45b8:	42000204 	addi	r8,r8,8
    45bc:	d8803717 	ldw	r2,220(sp)
    45c0:	d9003417 	ldw	r4,208(sp)
    45c4:	8c400044 	addi	r17,r17,1
    45c8:	10c7883a 	add	r3,r2,r3
    45cc:	40800115 	stw	r2,4(r8)
    45d0:	41000015 	stw	r4,0(r8)
    45d4:	d8c02015 	stw	r3,128(sp)
    45d8:	dc401f15 	stw	r17,124(sp)
    45dc:	008001c4 	movi	r2,7
    45e0:	14416916 	blt	r2,r17,4b88 <___vfprintf_internal_r+0x160c>
    45e4:	45800204 	addi	r22,r8,8
    45e8:	d9003617 	ldw	r4,216(sp)
    45ec:	d9403817 	ldw	r5,224(sp)
    45f0:	000d883a 	mov	r6,zero
    45f4:	000f883a 	mov	r7,zero
    45f8:	d8c03c15 	stw	r3,240(sp)
    45fc:	00168080 	call	16808 <__eqdf2>
    4600:	d8c03c17 	ldw	r3,240(sp)
    4604:	1000bc26 	beq	r2,zero,48f8 <___vfprintf_internal_r+0x137c>
    4608:	d9403317 	ldw	r5,204(sp)
    460c:	84000044 	addi	r16,r16,1
    4610:	8c400044 	addi	r17,r17,1
    4614:	28bfffc4 	addi	r2,r5,-1
    4618:	1887883a 	add	r3,r3,r2
    461c:	b0800115 	stw	r2,4(r22)
    4620:	b4000015 	stw	r16,0(r22)
    4624:	d8c02015 	stw	r3,128(sp)
    4628:	dc401f15 	stw	r17,124(sp)
    462c:	008001c4 	movi	r2,7
    4630:	14414316 	blt	r2,r17,4b40 <___vfprintf_internal_r+0x15c4>
    4634:	b5800204 	addi	r22,r22,8
    4638:	d9003a17 	ldw	r4,232(sp)
    463c:	df0022c4 	addi	fp,sp,139
    4640:	8c400044 	addi	r17,r17,1
    4644:	20c7883a 	add	r3,r4,r3
    4648:	b7000015 	stw	fp,0(r22)
    464c:	b1000115 	stw	r4,4(r22)
    4650:	d8c02015 	stw	r3,128(sp)
    4654:	dc401f15 	stw	r17,124(sp)
    4658:	008001c4 	movi	r2,7
    465c:	14400e16 	blt	r2,r17,4698 <___vfprintf_internal_r+0x111c>
    4660:	b2000204 	addi	r8,r22,8
    4664:	003e3a06 	br	3f50 <__alt_mem_VGA_Subsystem_Char_Buf_Subsystem_Onchip_SRAM+0xf7003f50>
    4668:	010000b4 	movhi	r4,2
    466c:	21314484 	addi	r4,r4,-15086
    4670:	d9002b15 	stw	r4,172(sp)
    4674:	d9002b17 	ldw	r4,172(sp)
    4678:	1c07883a 	add	r3,r3,r16
    467c:	44000115 	stw	r16,4(r8)
    4680:	41000015 	stw	r4,0(r8)
    4684:	10800044 	addi	r2,r2,1
    4688:	d8c02015 	stw	r3,128(sp)
    468c:	d8801f15 	stw	r2,124(sp)
    4690:	010001c4 	movi	r4,7
    4694:	20be2d0e 	bge	r4,r2,3f4c <__alt_mem_VGA_Subsystem_Char_Buf_Subsystem_Onchip_SRAM+0xf7003f4c>
    4698:	d9002c17 	ldw	r4,176(sp)
    469c:	d9801e04 	addi	r6,sp,120
    46a0:	b80b883a 	mov	r5,r23
    46a4:	000fd3c0 	call	fd3c <__sprint_r>
    46a8:	103cb61e 	bne	r2,zero,3984 <__alt_mem_VGA_Subsystem_Char_Buf_Subsystem_Onchip_SRAM+0xf7003984>
    46ac:	d8c02017 	ldw	r3,128(sp)
    46b0:	da000404 	addi	r8,sp,16
    46b4:	003e2606 	br	3f50 <__alt_mem_VGA_Subsystem_Char_Buf_Subsystem_Onchip_SRAM+0xf7003f50>
    46b8:	d9002c17 	ldw	r4,176(sp)
    46bc:	d9801e04 	addi	r6,sp,120
    46c0:	b80b883a 	mov	r5,r23
    46c4:	000fd3c0 	call	fd3c <__sprint_r>
    46c8:	103e5d26 	beq	r2,zero,4040 <__alt_mem_VGA_Subsystem_Char_Buf_Subsystem_Onchip_SRAM+0xf7004040>
    46cc:	003cad06 	br	3984 <__alt_mem_VGA_Subsystem_Char_Buf_Subsystem_Onchip_SRAM+0xf7003984>
    46d0:	d9002c17 	ldw	r4,176(sp)
    46d4:	d9801e04 	addi	r6,sp,120
    46d8:	b80b883a 	mov	r5,r23
    46dc:	000fd3c0 	call	fd3c <__sprint_r>
    46e0:	103ca81e 	bne	r2,zero,3984 <__alt_mem_VGA_Subsystem_Char_Buf_Subsystem_Onchip_SRAM+0xf7003984>
    46e4:	d8c02017 	ldw	r3,128(sp)
    46e8:	da000404 	addi	r8,sp,16
    46ec:	003e0b06 	br	3f1c <__alt_mem_VGA_Subsystem_Char_Buf_Subsystem_Onchip_SRAM+0xf7003f1c>
    46f0:	d9002c17 	ldw	r4,176(sp)
    46f4:	d9801e04 	addi	r6,sp,120
    46f8:	b80b883a 	mov	r5,r23
    46fc:	000fd3c0 	call	fd3c <__sprint_r>
    4700:	103ca01e 	bne	r2,zero,3984 <__alt_mem_VGA_Subsystem_Char_Buf_Subsystem_Onchip_SRAM+0xf7003984>
    4704:	d8c02017 	ldw	r3,128(sp)
    4708:	da000404 	addi	r8,sp,16
    470c:	003dbd06 	br	3e04 <__alt_mem_VGA_Subsystem_Char_Buf_Subsystem_Onchip_SRAM+0xf7003e04>
    4710:	d9002c17 	ldw	r4,176(sp)
    4714:	d9801e04 	addi	r6,sp,120
    4718:	b80b883a 	mov	r5,r23
    471c:	000fd3c0 	call	fd3c <__sprint_r>
    4720:	103c981e 	bne	r2,zero,3984 <__alt_mem_VGA_Subsystem_Char_Buf_Subsystem_Onchip_SRAM+0xf7003984>
    4724:	d8c02017 	ldw	r3,128(sp)
    4728:	da000404 	addi	r8,sp,16
    472c:	003dc306 	br	3e3c <__alt_mem_VGA_Subsystem_Char_Buf_Subsystem_Onchip_SRAM+0xf7003e3c>
    4730:	d8802917 	ldw	r2,164(sp)
    4734:	d8002785 	stb	zero,158(sp)
    4738:	103f0616 	blt	r2,zero,4354 <__alt_mem_VGA_Subsystem_Char_Buf_Subsystem_Onchip_SRAM+0xf7004354>
    473c:	00ffdfc4 	movi	r3,-129
    4740:	9d84b03a 	or	r2,r19,r22
    4744:	90e4703a 	and	r18,r18,r3
    4748:	103c6b26 	beq	r2,zero,38f8 <__alt_mem_VGA_Subsystem_Char_Buf_Subsystem_Onchip_SRAM+0xf70038f8>
    474c:	0039883a 	mov	fp,zero
    4750:	003e7406 	br	4124 <__alt_mem_VGA_Subsystem_Char_Buf_Subsystem_Onchip_SRAM+0xf7004124>
    4754:	9080040c 	andi	r2,r18,16
    4758:	1001b326 	beq	r2,zero,4e28 <___vfprintf_internal_r+0x18ac>
    475c:	d9002d17 	ldw	r4,180(sp)
    4760:	d9402917 	ldw	r5,164(sp)
    4764:	d8002785 	stb	zero,158(sp)
    4768:	20800104 	addi	r2,r4,4
    476c:	24c00017 	ldw	r19,0(r4)
    4770:	002d883a 	mov	r22,zero
    4774:	2801b516 	blt	r5,zero,4e4c <___vfprintf_internal_r+0x18d0>
    4778:	00ffdfc4 	movi	r3,-129
    477c:	d8802d15 	stw	r2,180(sp)
    4780:	90e4703a 	and	r18,r18,r3
    4784:	983d2726 	beq	r19,zero,3c24 <__alt_mem_VGA_Subsystem_Char_Buf_Subsystem_Onchip_SRAM+0xf7003c24>
    4788:	0039883a 	mov	fp,zero
    478c:	003d2a06 	br	3c38 <__alt_mem_VGA_Subsystem_Char_Buf_Subsystem_Onchip_SRAM+0xf7003c38>
    4790:	dc402617 	ldw	r17,152(sp)
    4794:	0441d30e 	bge	zero,r17,4ee4 <___vfprintf_internal_r+0x1968>
    4798:	dc403217 	ldw	r17,200(sp)
    479c:	d8803317 	ldw	r2,204(sp)
    47a0:	1440010e 	bge	r2,r17,47a8 <___vfprintf_internal_r+0x122c>
    47a4:	1023883a 	mov	r17,r2
    47a8:	04400a0e 	bge	zero,r17,47d4 <___vfprintf_internal_r+0x1258>
    47ac:	d8801f17 	ldw	r2,124(sp)
    47b0:	1c47883a 	add	r3,r3,r17
    47b4:	44000015 	stw	r16,0(r8)
    47b8:	10800044 	addi	r2,r2,1
    47bc:	44400115 	stw	r17,4(r8)
    47c0:	d8c02015 	stw	r3,128(sp)
    47c4:	d8801f15 	stw	r2,124(sp)
    47c8:	010001c4 	movi	r4,7
    47cc:	20826516 	blt	r4,r2,5164 <___vfprintf_internal_r+0x1be8>
    47d0:	42000204 	addi	r8,r8,8
    47d4:	88026116 	blt	r17,zero,515c <___vfprintf_internal_r+0x1be0>
    47d8:	d9003217 	ldw	r4,200(sp)
    47dc:	2463c83a 	sub	r17,r4,r17
    47e0:	04407b0e 	bge	zero,r17,49d0 <___vfprintf_internal_r+0x1454>
    47e4:	05800404 	movi	r22,16
    47e8:	d8801f17 	ldw	r2,124(sp)
    47ec:	b4419d0e 	bge	r22,r17,4e64 <___vfprintf_internal_r+0x18e8>
    47f0:	010000b4 	movhi	r4,2
    47f4:	21314484 	addi	r4,r4,-15086
    47f8:	d9002b15 	stw	r4,172(sp)
    47fc:	070001c4 	movi	fp,7
    4800:	dcc02c17 	ldw	r19,176(sp)
    4804:	00000306 	br	4814 <___vfprintf_internal_r+0x1298>
    4808:	42000204 	addi	r8,r8,8
    480c:	8c7ffc04 	addi	r17,r17,-16
    4810:	b441970e 	bge	r22,r17,4e70 <___vfprintf_internal_r+0x18f4>
    4814:	18c00404 	addi	r3,r3,16
    4818:	10800044 	addi	r2,r2,1
    481c:	45000015 	stw	r20,0(r8)
    4820:	45800115 	stw	r22,4(r8)
    4824:	d8c02015 	stw	r3,128(sp)
    4828:	d8801f15 	stw	r2,124(sp)
    482c:	e0bff60e 	bge	fp,r2,4808 <__alt_mem_VGA_Subsystem_Char_Buf_Subsystem_Onchip_SRAM+0xf7004808>
    4830:	d9801e04 	addi	r6,sp,120
    4834:	b80b883a 	mov	r5,r23
    4838:	9809883a 	mov	r4,r19
    483c:	000fd3c0 	call	fd3c <__sprint_r>
    4840:	103c501e 	bne	r2,zero,3984 <__alt_mem_VGA_Subsystem_Char_Buf_Subsystem_Onchip_SRAM+0xf7003984>
    4844:	d8c02017 	ldw	r3,128(sp)
    4848:	d8801f17 	ldw	r2,124(sp)
    484c:	da000404 	addi	r8,sp,16
    4850:	003fee06 	br	480c <__alt_mem_VGA_Subsystem_Char_Buf_Subsystem_Onchip_SRAM+0xf700480c>
    4854:	d9002c17 	ldw	r4,176(sp)
    4858:	d9801e04 	addi	r6,sp,120
    485c:	b80b883a 	mov	r5,r23
    4860:	000fd3c0 	call	fd3c <__sprint_r>
    4864:	103c471e 	bne	r2,zero,3984 <__alt_mem_VGA_Subsystem_Char_Buf_Subsystem_Onchip_SRAM+0xf7003984>
    4868:	d8c02017 	ldw	r3,128(sp)
    486c:	df002787 	ldb	fp,158(sp)
    4870:	da000404 	addi	r8,sp,16
    4874:	003d5606 	br	3dd0 <__alt_mem_VGA_Subsystem_Char_Buf_Subsystem_Onchip_SRAM+0xf7003dd0>
    4878:	9080040c 	andi	r2,r18,16
    487c:	10016126 	beq	r2,zero,4e04 <___vfprintf_internal_r+0x1888>
    4880:	d8802d17 	ldw	r2,180(sp)
    4884:	14c00017 	ldw	r19,0(r2)
    4888:	10800104 	addi	r2,r2,4
    488c:	d8802d15 	stw	r2,180(sp)
    4890:	982dd7fa 	srai	r22,r19,31
    4894:	b005883a 	mov	r2,r22
    4898:	003c8206 	br	3aa4 <__alt_mem_VGA_Subsystem_Char_Buf_Subsystem_Onchip_SRAM+0xf7003aa4>
    489c:	9080040c 	andi	r2,r18,16
    48a0:	10003526 	beq	r2,zero,4978 <___vfprintf_internal_r+0x13fc>
    48a4:	d9402d17 	ldw	r5,180(sp)
    48a8:	d8c02917 	ldw	r3,164(sp)
    48ac:	d8002785 	stb	zero,158(sp)
    48b0:	28800104 	addi	r2,r5,4
    48b4:	2cc00017 	ldw	r19,0(r5)
    48b8:	002d883a 	mov	r22,zero
    48bc:	18003716 	blt	r3,zero,499c <___vfprintf_internal_r+0x1420>
    48c0:	00ffdfc4 	movi	r3,-129
    48c4:	d8802d15 	stw	r2,180(sp)
    48c8:	90e4703a 	and	r18,r18,r3
    48cc:	0039883a 	mov	fp,zero
    48d0:	983df326 	beq	r19,zero,40a0 <__alt_mem_VGA_Subsystem_Char_Buf_Subsystem_Onchip_SRAM+0xf70040a0>
    48d4:	00800244 	movi	r2,9
    48d8:	14fc7b36 	bltu	r2,r19,3ac8 <__alt_mem_VGA_Subsystem_Char_Buf_Subsystem_Onchip_SRAM+0xf7003ac8>
    48dc:	d8c02817 	ldw	r3,160(sp)
    48e0:	dc001dc4 	addi	r16,sp,119
    48e4:	9cc00c04 	addi	r19,r19,48
    48e8:	1c07c83a 	sub	r3,r3,r16
    48ec:	dcc01dc5 	stb	r19,119(sp)
    48f0:	d8c02e15 	stw	r3,184(sp)
    48f4:	003ce806 	br	3c98 <__alt_mem_VGA_Subsystem_Char_Buf_Subsystem_Onchip_SRAM+0xf7003c98>
    48f8:	d8803317 	ldw	r2,204(sp)
    48fc:	143fffc4 	addi	r16,r2,-1
    4900:	043f4d0e 	bge	zero,r16,4638 <__alt_mem_VGA_Subsystem_Char_Buf_Subsystem_Onchip_SRAM+0xf7004638>
    4904:	07000404 	movi	fp,16
    4908:	e400810e 	bge	fp,r16,4b10 <___vfprintf_internal_r+0x1594>
    490c:	014000b4 	movhi	r5,2
    4910:	29714484 	addi	r5,r5,-15086
    4914:	d9402b15 	stw	r5,172(sp)
    4918:	01c001c4 	movi	r7,7
    491c:	dcc02c17 	ldw	r19,176(sp)
    4920:	00000306 	br	4930 <___vfprintf_internal_r+0x13b4>
    4924:	b5800204 	addi	r22,r22,8
    4928:	843ffc04 	addi	r16,r16,-16
    492c:	e4007b0e 	bge	fp,r16,4b1c <___vfprintf_internal_r+0x15a0>
    4930:	18c00404 	addi	r3,r3,16
    4934:	8c400044 	addi	r17,r17,1
    4938:	b5000015 	stw	r20,0(r22)
    493c:	b7000115 	stw	fp,4(r22)
    4940:	d8c02015 	stw	r3,128(sp)
    4944:	dc401f15 	stw	r17,124(sp)
    4948:	3c7ff60e 	bge	r7,r17,4924 <__alt_mem_VGA_Subsystem_Char_Buf_Subsystem_Onchip_SRAM+0xf7004924>
    494c:	d9801e04 	addi	r6,sp,120
    4950:	b80b883a 	mov	r5,r23
    4954:	9809883a 	mov	r4,r19
    4958:	d9c03c15 	stw	r7,240(sp)
    495c:	000fd3c0 	call	fd3c <__sprint_r>
    4960:	d9c03c17 	ldw	r7,240(sp)
    4964:	103c071e 	bne	r2,zero,3984 <__alt_mem_VGA_Subsystem_Char_Buf_Subsystem_Onchip_SRAM+0xf7003984>
    4968:	d8c02017 	ldw	r3,128(sp)
    496c:	dc401f17 	ldw	r17,124(sp)
    4970:	dd800404 	addi	r22,sp,16
    4974:	003fec06 	br	4928 <__alt_mem_VGA_Subsystem_Char_Buf_Subsystem_Onchip_SRAM+0xf7004928>
    4978:	9080100c 	andi	r2,r18,64
    497c:	d8002785 	stb	zero,158(sp)
    4980:	10010e26 	beq	r2,zero,4dbc <___vfprintf_internal_r+0x1840>
    4984:	d9002d17 	ldw	r4,180(sp)
    4988:	d9402917 	ldw	r5,164(sp)
    498c:	002d883a 	mov	r22,zero
    4990:	20800104 	addi	r2,r4,4
    4994:	24c0000b 	ldhu	r19,0(r4)
    4998:	283fc90e 	bge	r5,zero,48c0 <__alt_mem_VGA_Subsystem_Char_Buf_Subsystem_Onchip_SRAM+0xf70048c0>
    499c:	d8802d15 	stw	r2,180(sp)
    49a0:	0039883a 	mov	fp,zero
    49a4:	9d84b03a 	or	r2,r19,r22
    49a8:	103c461e 	bne	r2,zero,3ac4 <__alt_mem_VGA_Subsystem_Char_Buf_Subsystem_Onchip_SRAM+0xf7003ac4>
    49ac:	00800044 	movi	r2,1
    49b0:	003e6c06 	br	4364 <__alt_mem_VGA_Subsystem_Char_Buf_Subsystem_Onchip_SRAM+0xf7004364>
    49b4:	d9002c17 	ldw	r4,176(sp)
    49b8:	d9801e04 	addi	r6,sp,120
    49bc:	b80b883a 	mov	r5,r23
    49c0:	000fd3c0 	call	fd3c <__sprint_r>
    49c4:	103bef1e 	bne	r2,zero,3984 <__alt_mem_VGA_Subsystem_Char_Buf_Subsystem_Onchip_SRAM+0xf7003984>
    49c8:	d8c02017 	ldw	r3,128(sp)
    49cc:	da000404 	addi	r8,sp,16
    49d0:	d9003217 	ldw	r4,200(sp)
    49d4:	d8802617 	ldw	r2,152(sp)
    49d8:	d9403317 	ldw	r5,204(sp)
    49dc:	8123883a 	add	r17,r16,r4
    49e0:	11400216 	blt	r2,r5,49ec <___vfprintf_internal_r+0x1470>
    49e4:	9100004c 	andi	r4,r18,1
    49e8:	20000d26 	beq	r4,zero,4a20 <___vfprintf_internal_r+0x14a4>
    49ec:	d9003717 	ldw	r4,220(sp)
    49f0:	d9403417 	ldw	r5,208(sp)
    49f4:	1907883a 	add	r3,r3,r4
    49f8:	d9001f17 	ldw	r4,124(sp)
    49fc:	41400015 	stw	r5,0(r8)
    4a00:	d9403717 	ldw	r5,220(sp)
    4a04:	21000044 	addi	r4,r4,1
    4a08:	d8c02015 	stw	r3,128(sp)
    4a0c:	41400115 	stw	r5,4(r8)
    4a10:	d9001f15 	stw	r4,124(sp)
    4a14:	014001c4 	movi	r5,7
    4a18:	2901e816 	blt	r5,r4,51bc <___vfprintf_internal_r+0x1c40>
    4a1c:	42000204 	addi	r8,r8,8
    4a20:	d9003317 	ldw	r4,204(sp)
    4a24:	8121883a 	add	r16,r16,r4
    4a28:	2085c83a 	sub	r2,r4,r2
    4a2c:	8461c83a 	sub	r16,r16,r17
    4a30:	1400010e 	bge	r2,r16,4a38 <___vfprintf_internal_r+0x14bc>
    4a34:	1021883a 	mov	r16,r2
    4a38:	04000a0e 	bge	zero,r16,4a64 <___vfprintf_internal_r+0x14e8>
    4a3c:	d9001f17 	ldw	r4,124(sp)
    4a40:	1c07883a 	add	r3,r3,r16
    4a44:	44400015 	stw	r17,0(r8)
    4a48:	21000044 	addi	r4,r4,1
    4a4c:	44000115 	stw	r16,4(r8)
    4a50:	d8c02015 	stw	r3,128(sp)
    4a54:	d9001f15 	stw	r4,124(sp)
    4a58:	014001c4 	movi	r5,7
    4a5c:	2901fb16 	blt	r5,r4,524c <___vfprintf_internal_r+0x1cd0>
    4a60:	42000204 	addi	r8,r8,8
    4a64:	8001f716 	blt	r16,zero,5244 <___vfprintf_internal_r+0x1cc8>
    4a68:	1421c83a 	sub	r16,r2,r16
    4a6c:	043d380e 	bge	zero,r16,3f50 <__alt_mem_VGA_Subsystem_Char_Buf_Subsystem_Onchip_SRAM+0xf7003f50>
    4a70:	04400404 	movi	r17,16
    4a74:	d8801f17 	ldw	r2,124(sp)
    4a78:	8c3efb0e 	bge	r17,r16,4668 <__alt_mem_VGA_Subsystem_Char_Buf_Subsystem_Onchip_SRAM+0xf7004668>
    4a7c:	014000b4 	movhi	r5,2
    4a80:	29714484 	addi	r5,r5,-15086
    4a84:	d9402b15 	stw	r5,172(sp)
    4a88:	058001c4 	movi	r22,7
    4a8c:	dcc02c17 	ldw	r19,176(sp)
    4a90:	00000306 	br	4aa0 <___vfprintf_internal_r+0x1524>
    4a94:	42000204 	addi	r8,r8,8
    4a98:	843ffc04 	addi	r16,r16,-16
    4a9c:	8c3ef50e 	bge	r17,r16,4674 <__alt_mem_VGA_Subsystem_Char_Buf_Subsystem_Onchip_SRAM+0xf7004674>
    4aa0:	18c00404 	addi	r3,r3,16
    4aa4:	10800044 	addi	r2,r2,1
    4aa8:	45000015 	stw	r20,0(r8)
    4aac:	44400115 	stw	r17,4(r8)
    4ab0:	d8c02015 	stw	r3,128(sp)
    4ab4:	d8801f15 	stw	r2,124(sp)
    4ab8:	b0bff60e 	bge	r22,r2,4a94 <__alt_mem_VGA_Subsystem_Char_Buf_Subsystem_Onchip_SRAM+0xf7004a94>
    4abc:	d9801e04 	addi	r6,sp,120
    4ac0:	b80b883a 	mov	r5,r23
    4ac4:	9809883a 	mov	r4,r19
    4ac8:	000fd3c0 	call	fd3c <__sprint_r>
    4acc:	103bad1e 	bne	r2,zero,3984 <__alt_mem_VGA_Subsystem_Char_Buf_Subsystem_Onchip_SRAM+0xf7003984>
    4ad0:	d8c02017 	ldw	r3,128(sp)
    4ad4:	d8801f17 	ldw	r2,124(sp)
    4ad8:	da000404 	addi	r8,sp,16
    4adc:	003fee06 	br	4a98 <__alt_mem_VGA_Subsystem_Char_Buf_Subsystem_Onchip_SRAM+0xf7004a98>
    4ae0:	9088703a 	and	r4,r18,r2
    4ae4:	203eab1e 	bne	r4,zero,4594 <__alt_mem_VGA_Subsystem_Char_Buf_Subsystem_Onchip_SRAM+0xf7004594>
    4ae8:	dc401f17 	ldw	r17,124(sp)
    4aec:	40800115 	stw	r2,4(r8)
    4af0:	44000015 	stw	r16,0(r8)
    4af4:	8c400044 	addi	r17,r17,1
    4af8:	d8c02015 	stw	r3,128(sp)
    4afc:	dc401f15 	stw	r17,124(sp)
    4b00:	008001c4 	movi	r2,7
    4b04:	14400e16 	blt	r2,r17,4b40 <___vfprintf_internal_r+0x15c4>
    4b08:	45800204 	addi	r22,r8,8
    4b0c:	003eca06 	br	4638 <__alt_mem_VGA_Subsystem_Char_Buf_Subsystem_Onchip_SRAM+0xf7004638>
    4b10:	010000b4 	movhi	r4,2
    4b14:	21314484 	addi	r4,r4,-15086
    4b18:	d9002b15 	stw	r4,172(sp)
    4b1c:	d8802b17 	ldw	r2,172(sp)
    4b20:	1c07883a 	add	r3,r3,r16
    4b24:	8c400044 	addi	r17,r17,1
    4b28:	b0800015 	stw	r2,0(r22)
    4b2c:	b4000115 	stw	r16,4(r22)
    4b30:	d8c02015 	stw	r3,128(sp)
    4b34:	dc401f15 	stw	r17,124(sp)
    4b38:	008001c4 	movi	r2,7
    4b3c:	147ebd0e 	bge	r2,r17,4634 <__alt_mem_VGA_Subsystem_Char_Buf_Subsystem_Onchip_SRAM+0xf7004634>
    4b40:	d9002c17 	ldw	r4,176(sp)
    4b44:	d9801e04 	addi	r6,sp,120
    4b48:	b80b883a 	mov	r5,r23
    4b4c:	000fd3c0 	call	fd3c <__sprint_r>
    4b50:	103b8c1e 	bne	r2,zero,3984 <__alt_mem_VGA_Subsystem_Char_Buf_Subsystem_Onchip_SRAM+0xf7003984>
    4b54:	d8c02017 	ldw	r3,128(sp)
    4b58:	dc401f17 	ldw	r17,124(sp)
    4b5c:	dd800404 	addi	r22,sp,16
    4b60:	003eb506 	br	4638 <__alt_mem_VGA_Subsystem_Char_Buf_Subsystem_Onchip_SRAM+0xf7004638>
    4b64:	d9002c17 	ldw	r4,176(sp)
    4b68:	d9801e04 	addi	r6,sp,120
    4b6c:	b80b883a 	mov	r5,r23
    4b70:	000fd3c0 	call	fd3c <__sprint_r>
    4b74:	103b831e 	bne	r2,zero,3984 <__alt_mem_VGA_Subsystem_Char_Buf_Subsystem_Onchip_SRAM+0xf7003984>
    4b78:	d8c02017 	ldw	r3,128(sp)
    4b7c:	dc401f17 	ldw	r17,124(sp)
    4b80:	da000404 	addi	r8,sp,16
    4b84:	003e8d06 	br	45bc <__alt_mem_VGA_Subsystem_Char_Buf_Subsystem_Onchip_SRAM+0xf70045bc>
    4b88:	d9002c17 	ldw	r4,176(sp)
    4b8c:	d9801e04 	addi	r6,sp,120
    4b90:	b80b883a 	mov	r5,r23
    4b94:	000fd3c0 	call	fd3c <__sprint_r>
    4b98:	103b7a1e 	bne	r2,zero,3984 <__alt_mem_VGA_Subsystem_Char_Buf_Subsystem_Onchip_SRAM+0xf7003984>
    4b9c:	d8c02017 	ldw	r3,128(sp)
